(dp0
V7692
p1
VWELDING REPAIR
p2
sV3715
p3
VTRUCK TRAILERS
p4
sV6514
p5
VOPERATORS OF DWELLINGS OTHER THAN APARTMENT BUILDINGS
p6
sV5561
p7
VRECREATIONAL VEHICLE DEALERS
p8
sV6722
p9
VMANAGEMENT INVESTMENT OFFICES, OPEN-END
p10
sV0831
p11
VFOREST NURSERIES AND GATHERING OF FOREST PRODUCTS
p12
sV6726
p13
VUNIT INVESTMENT TRUSTS, FACE-AMOUNT CERTIFICATE OFFICES, AND CLOS
p14
sV4789
p15
VTRANSPORTATION SERVICES
p16
sV7812
p17
VMOTION PICTURE AND VIDEO TAPE PRODUCTION
p18
sV4785
p19
VCARGO CHECKERS AND SURVEYORS, MARINE
p20
sV4783
p21
VPACKING AND CRATING
p22
sV3259
p23
VSTRUCTURAL CLAY PRODUCTS
p24
sV3555
p25
VPRINTING TRADES MACHINERY AND EQUIPMENT
p26
sV3554
p27
VPAPER INDUSTRIES MACHINERY
p28
sV3553
p29
VWOODWORKING MACHINERY
p30
sV3498
p31
VFABRICATED PIPE AND PIPE FITTINGS
p32
sV3251
p33
VBRICK AND STRUCTURAL CLAY TILE
p34
sV3253
p35
VCERAMIC WALL AND FLOOR TILE
p36
sV4141
p37
VLOCAL BUS CHARTER SERVICE
p38
sV3255
p39
VCLAY REFRACTORIES
p40
sV3559
p41
VSPECIAL INDUSTRY MACHINERY
p42
sV4142
p43
VBUS CHARTER SERVICE, EXCEPT LOCAL
p44
sV7515
p45
VPASSENGER CAR LEASING
p46
sV7514
p47
VPASSENGER CAR RENTAL
p48
sV7513
p49
VTRUCK RENTAL AND LEASING, WITHOUT DRIVERS
p50
sV3999
p51
VMANUFACTURING INDUSTRIES
p52
sV3851
p53
VOPHTHALMIC GOODS
p54
sV3996
p55
VLINOLEUM, ASPHALTED-FELT-BASE, AND OTHER HARD SURFACE FLOOR COVER
p56
sV3995
p57
VBURIAL CASKETS
p58
sV3993
p59
VSIGNS AND ADVERTISING SPECIALTIES
p60
sV3991
p61
VBROOMS AND BRUSHES
p62
sV6061
p63
VCREDIT UNIONS, FEDERALLY CHARTERED
p64
sV2911
p65
VPETROLEUM REFINING
p66
sV1799
p67
VSPECIAL TRADE CONTRACTORS
p68
sV6062
p69
VCREDIT UNIONS, NOT FEDERALLY CHARTERED
p70
sV1793
p71
VGLASS INSTALLATION, EXCEPT AUTOMOTIVE-CONTRACTORS
p72
sV1791
p73
VSTRUCTURAL STEEL ERECTION
p74
sV1796
p75
VINSTALLATION OR ERECTION OF BUILDING EQUIPMENT, NOT ELSEWHERE CLA
p76
sV1795
p77
VWRECKING AND DEMOLITION WORK
p78
sV1794
p79
VEXCAVATION WORK
p80
sV5461
p81
VRETAIL BAKERIES
p82
sV3331
p83
VPRIMARY SMELTING AND REFINING OF COPPER
p84
sV6153
p85
VSHORT-TERM BUSINESS CREDIT INSTITUTIONS, EXCEPT AGRICULTURAL
p86
sV7041
p87
VORGANIZATION HOTELS AND LODGING HOUSES, ON MEMBERSHIP BASIS
p88
sV3334
p89
VPRIMARY PRODUCTION OF ALUMINUM
p90
sV6091
p91
VNONDEPOSIT TRUST FACILITIES
p92
sV1499
p93
VMISCELLANEOUS NONMETALLIC MINERALS, EXCEPT FUELS
p94
sV3339
p95
VPRIMARY SMELTING AND REFINING OF NONFERROUS METALS, EXCEPT COPPER
p96
sV3491
p97
VINDUSTRIAL VALVES
p98
sV0721
p99
VCROP PLANTING, CULTIVATING, AND PROTECTING
p100
sV0723
p101
VCROP PREPARATION SERVICES FOR MARKET, EXCEPT COTTON GINNING
p102
sV0722
p103
VCROP HARVESTING, PRIMARILY BY MACHINE
p104
sV6792
p105
VOIL ROYALTY TRADERS
p106
sV0724
p107
VCOTTON GINNING
p108
sV5261
p109
VRETAIL NURSERIES, LAWN AND GARDEN SUPPLY STORES
p110
sV1061
p111
VFERROALLOY ORES, EXCEPT VANADIUM
p112
sV6798
p113
VREAL ESTATE INVESTMENT TRUSTS
p114
sV2311
p115
VMEN'S AND BOYS' SUITS, COATS, AND OVERCOATS
p116
sV4961
p117
VSTEAM AND AIR-CONDITIONING SUPPLY
p118
sV7032
p119
VSPORTING AND RECREATIONAL CAMPS
p120
sV5912
p121
VDRUG STORES AND PROPRIETARY STORES
p122
sV0112
p123
VRICE
p124
sV8231
p125
VLIBRARIES
p126
sV0111
p127
VWHEAT
p128
sV0116
p129
VSOYBEANS
p130
sV1081
p131
VMETAL MINING SERVICES
p132
sV0115
p133
VCORN
p134
sV0119
p135
VCASH GRAINS
p136
sV3142
p137
VHOUSE SLIPPERS
p138
sV3143
p139
VMEN'S FOOTWEAR, EXCEPT ATHLETIC
p140
sV3144
p141
VWOMEN'S FOOTWEAR, EXCEPT ATHLETIC
p142
sV2824
p143
VMANMADE ORGANIC FIBERS, EXCEPT CELLULOSIC
p144
sV3149
p145
VFOOTWEAR, EXCEPT RUBBER
p146
sV3671
p147
VELECTRON TUBES
p148
sV3676
p149
VELECTRONIC RESISTORS
p150
sV2821
p151
VPLASTICS MATERIALS, SYNTHETIC RESINS, AND NONVULCANIZABLE ELASTOM
p152
sV2822
p153
VSYNTHETIC RUBBER (VULCANIZABLE ELASTOMERS)
p154
sV2823
p155
VCELLULOSIC MANMADE FIBERS
p156
sV2542
p157
VOFFICE AND STORE FIXTURES, PARTITIONS, SHELVING, AND LOCKERS, EXC
p158
sV2541
p159
VWOOD OFFICE AND STORE FIXTURES, PARTITIONS, SHELVING, AND LOCKERS
p160
sV5411
p161
VGROCERY STORES
p162
sV7992
p163
VPUBLIC GOLF COURSES
p164
sV7631
p165
VWATCH, CLOCK, AND JEWELRY REPAIR
p166
sV3021
p167
VRUBBER AND PLASTICS FOOTWEAR
p168
sV3651
p169
VHOUSEHOLD AUDIO AND VIDEO EQUIPMENT
p170
sV2381
p171
VDRESS AND WORK GLOVES, EXCEPT KNIT AND ALL-LEATHER
p172
sV2269
p173
VFINISHERS OF TEXTILES
p174
sV2385
p175
VWATERPROOF OUTERWEAR
p176
sV0751
p177
VLIVESTOCK SERVICES, EXCEPT VETERINARY
p178
sV0752
p179
VANIMAL SPECIALTY SERVICES, EXCEPT VETERINARY
p180
sV2386
p181
VLEATHER AND SHEEP-LINED CLOTHING
p182
sV2389
p183
VAPPAREL AND ACCESSORIES
p184
sV8734
p185
VTESTING LABORATORIES
p186
sV2261
p187
VFINISHERS OF BROADWOVEN FABRICS OF COTTON
p188
sV8732
p189
VCOMMERCIAL ECONOMIC, SOCIOLOGICAL, AND EDUCATIONAL RESEARCH
p190
sV1011
p191
VIRON ORES
p192
sV7996
p193
VAMUSEMENT PARKS
p194
sV4215
p195
VCOURIER SERVICES, EXCEPT BY AIR
p196
sV3581
p197
VAUTOMATIC VENDING MACHINES
p198
sV3582
p199
VCOMMERCIAL LAUNDRY, DRYCLEANING, AND PRESSING MACHINES
p200
sV2441
p201
VNAILED AND LOCK CORNER WOOD BOXES AND SHOOK
p202
sV1231
p203
VANTHRACITE MINING
p204
sV3586
p205
VMEASURING AND DISPENSING PUMPS
p206
sV3556
p207
VFOOD PRODUCTS MACHINERY
p208
sV3589
p209
VSERVICE INDUSTRY MACHINERY
p210
sV2448
p211
VWOOD PALLETS AND SKIDS
p212
sV2449
p213
VWOOD CONTAINERS
p214
sV5989
p215
VFUEL DEALERS
p216
sV8699
p217
VMEMBERSHIP ORGANIZATIONS
p218
sV7374
p219
VCOMPUTER PROCESSING AND DATA PREPARATION AND PROCESSING SERVICES
p220
sV2521
p221
VWOOD OFFICE FURNITURE
p222
sV3552
p223
VTEXTILE MACHINERY
p224
sV2046
p225
VWET CORN MILLING
p226
sV2047
p227
VDOG AND CAT FOOD
p228
sV2044
p229
VRICE MILLING
p230
sV2045
p231
VPREPARED FLOUR MIXES AND DOUGHS
p232
sV7819
p233
VSERVICES ALLIED TO MOTION PICTURE PRODUCTION
p234
sV2043
p235
VCEREAL BREAKFAST FOODS
p236
sV2041
p237
VFLOUR AND OTHER GRAIN MILL PRODUCTS
p238
sV3612
p239
VPOWER, DISTRIBUTION, AND SPECIALTY TRANSFORMERS
p240
sV2522
p241
VOFFICE FURNITURE, EXCEPT WOOD
p242
sV2048
p243
VPREPARED FEEDS AND FEED INGREDIENTS FOR ANIMALS AND FOWLS, EXCEPT
p244
sV2511
p245
VWOOD HOUSEHOLD FURNITURE, EXCEPT UPHOLSTERED
p246
sV1241
p247
VCOAL MINING SERVICES
p248
sV9411
p249
VADMINISTRATION OF EDUCATIONAL PROGRAMS
p250
sV4959
p251
VSANITARY SERVICES
p252
sV1531
p253
VOPERATIVE BUILDERS
p254
sV5983
p255
VFUEL OIL DEALERS
p256
sV4952
p257
VSEWERAGE SYSTEMS
p258
sV4953
p259
VREFUSE SYSTEMS
p260
sV2611
p261
VPULP MILLS
p262
sV0971
p263
VHUNTING AND TRAPPING, AND GAME PROPAGATION
p264
sV7342
p265
VDISINFECTING AND PEST CONTROL SERVICES
p266
sV3299
p267
VNONMETALLIC MINERAL PRODUCTS
p268
sV5139
p269
VFOOTWEAR
p270
sV5137
p271
VWOMEN'S, CHILDREN'S, AND INFANTS' CLOTHING AND ACCESSORIES
p272
sV3295
p273
VMINERALS AND EARTHS, GROUND OR OTHERWISE TREATED
p274
sV3296
p275
VMINERAL WOOL
p276
sV3297
p277
VNONCLAY REFRACTORIES
p278
sV3291
p279
VABRASIVE PRODUCTS
p280
sV3292
p281
VASBESTOS PRODUCTS
p282
sV7349
p283
VBUILDING CLEANING AND MAINTENANCE SERVICES
p284
sV3452
p285
VBOLTS, NUTS, SCREWS, RIVETS, AND WASHERS
p286
sV3519
p287
VINTERNAL COMBUSTION ENGINES
p288
sV3451
p289
VSCREW MACHINE PRODUCTS
p290
sV5113
p291
VINDUSTRIAL AND PERSONAL SERVICE PAPER
p292
sV8043
p293
VOFFICES AND CLINICS OF PODIATRISTS
p294
sV7629
p295
VELECTRICAL AND ELECTRONIC REPAIR SHOPS
p296
sV3511
p297
VSTEAM, GAS, AND HYDRAULIC TURBINES, AND TURBINE GENERATOR SET UNI
p298
sV9611
p299
VADMINISTRATION OF GENERAL ECONOMIC PROGRAMS
p300
sV7261
p301
VFUNERAL SERVICE AND CREMATORIES
p302
sV9311
p303
VPUBLIC FINANCE, TAXATION, AND MONETARY POLICY
p304
sV0254
p305
VPOULTRY HATCHERIES
p306
sV6011
p307
VFEDERAL RESERVE BANKS
p308
sV3632
p309
VHOUSEHOLD REFRIGERATORS AND HOME AND FARM FREEZERS
p310
sV4813
p311
VTELEPHONE COMMUNICATIONS, EXCEPT RADIOTELEPHONE
p312
sV7378
p313
VCOMPUTER MAINTENANCE AND REPAIR
p314
sV8743
p315
VPUBLIC RELATIONS SERVICES
p316
sV3631
p317
VHOUSEHOLD COOKING EQUIPMENT
p318
sV8741
p319
VMANAGEMENT SERVICES
p320
sV1623
p321
VWATER, SEWER, PIPELINE, AND COMMUNICATIONS AND POWER LINE CONSTRUCTION
p322
sV1622
p323
VBRIDGE, TUNNEL, AND ELEVATED HIGHWAY CONSTRUCTION
p324
sV5181
p325
VBEER AND ALE
p326
sV4173
p327
VTERMINAL AND SERVICE FACILITIES FOR MOTOR VEHICLE PASSENGER TRANS
p328
sV1629
p329
VHEAVY CONSTRUCTION
p330
sV7373
p331
VCOMPUTER INTEGRATED SYSTEMS DESIGN
p332
sV3965
p333
VFASTENERS, BUTTONS, NEEDLES, AND PINS
p334
sV8742
p335
VMANAGEMENT CONSULTING SERVICES
p336
sV7519
p337
VUTILITY TRAILER AND RECREATIONAL VEHICLE RENTAL
p338
sV3398
p339
VMETAL HEAT TREATING
p340
sV5812
p341
VEATING PLACES
p342
sV5813
p343
VDRINKING PLACES (ALCOHOLIC BEVERAGES)
p344
sV2861
p345
VGUM AND WOOD CHEMICALS
p346
sV0259
p347
VPOULTRY AND EGGS
p348
sV2865
p349
VCYCLIC ORGANIC CRUDES AND INTERMEDIATES, AND ORGANIC DYES AND PIG
p350
sV3639
p351
VHOUSEHOLD APPLIANCES
p352
sV2869
p353
VINDUSTRIAL ORGANIC CHEMICALS
p354
sV3634
p355
VELECTRIC HOUSEWARES AND FANS
p356
sV3635
p357
VHOUSEHOLD VACUUM CLEANERS
p358
sV0251
p359
VBROILER, FRYER, AND ROASTER CHICKENS
p360
sV3633
p361
VHOUSEHOLD LAUNDRY EQUIPMENT
p362
sV0253
p363
VTURKEYS AND TURKEY EGGS
p364
sV0252
p365
VCHICKEN EGGS
p366
sV4619
p367
VPIPELINES
p368
sV3061
p369
VMOLDED, EXTRUDED, AND LATHE-CUT MECHANICAL RUBBER GOODS
p370
sV5085
p371
VINDUSTRIAL SUPPLIES
p372
sV7213
p373
VLINEN SUPPLY
p374
sV3069
p375
VFABRICATED RUBBER PRODUCTS
p376
sV4612
p377
VCRUDE PETROLEUM PIPELINES
p378
sV4613
p379
VREFINED PETROLEUM PIPELINES
p380
sV2341
p381
VWOMEN'S, MISSES', CHILDREN'S, AND INFANTS' UNDERWEAR AND NIGHTWEAR
p382
sV5063
p383
VELECTRICAL APPARATUS AND EQUIPMENT, WIRING SUPPLIES
p384
sV2342
p385
VBRASSIERES, GIRDLES, AND ALLIED GARMENTS
p386
sV5451
p387
VDAIRY PRODUCTS STORES
p388
sV3341
p389
VSECONDARY SMELTING AND REFINING OF NONFERROUS METALS
p390
sV2066
p391
VCHOCOLATE AND COCOA PRODUCTS
p392
sV2221
p393
VBROADWOVEN FABRIC MILLS, MANMADE FIBER AND SILK
p394
sV2851
p395
VPAINTS, VARNISHES, LACQUERS, ENAMELS, AND ALLIED PRODUCTS
p396
sV5921
p397
VLIQUOR STORES
p398
sV5147
p399
VMEATS AND MEAT PRODUCTS
p400
sV0711
p401
VSOIL PREPARATION SERVICES
p402
sV1752
p403
VFLOOR LAYING AND OTHER FLOOR WORK
p404
sV1751
p405
VCARPENTRY WORK
p406
sV0214
p407
VSHEEP AND GOATS
p408
sV4311
p409
VUNITED STATES POSTAL SERVICE
p410
sV9111
p411
VEXECUTIVE OFFICES
p412
sV9441
p413
VADMINISTRATION OF SOCIAL, HUMAN RESOURCE AND INCOME MAINTENANCE P
p414
sV8721
p415
VACCOUNTING, AUDITING, AND BOOKKEEPING SERVICES
p416
sV5531
p417
VAUTO AND HOME SUPPLY STORES
p418
sV8249
p419
VVOCATIONAL SCHOOLS
p420
sV7822
p421
VMOTION PICTURE AND VIDEO TAPE DISTRIBUTION
p422
sV8244
p423
VBUSINESS AND SECRETARIAL SCHOOLS
p424
sV2121
p425
VCIGARS
p426
sV6099
p427
VFUNCTIONS RELATED TO DEPOSITORY BANKING
p428
sV8243
p429
VDATA PROCESSING SCHOOLS
p430
sV2082
p431
VMALT BEVERAGES
p432
sV2083
p433
VMALT
p434
sV5714
p435
VDRAPERY, CURTAIN, AND UPHOLSTERY STORES
p436
sV2086
p437
VBOTTLED AND CANNED SOFT DRINKS AND CARBONATED WATERS
p438
sV2087
p439
VFLAVORING EXTRACTS AND FLAVORING SYRUPS
p440
sV3111
p441
VLEATHER TANNING AND FINISHING
p442
sV2085
p443
VDISTILLED AND BLENDED LIQUORS
p444
sV1474
p445
VPOTASH, SODA, AND BORATE MINERALS
p446
sV1475
p447
VPHOSPHATE ROCK
p448
sV7379
p449
VCOMPUTER RELATED SERVICES
p450
sV2531
p451
VPUBLIC BUILDING AND RELATED FURNITURE
p452
sV6036
p453
VSAVINGS INSTITUTIONS, NOT FEDERALLY CHARTERED
p454
sV6035
p455
VSAVINGS INSTITUTIONS, FEDERALLY CHARTERED
p456
sV8641
p457
VCIVIC, SOCIAL, AND FRATERNAL ASSOCIATIONS
p458
sV5172
p459
VPETROLEUM AND PETROLEUM PRODUCTS WHOLESALERS, EXCEPT BULK STATION
p460
sV5171
p461
VPETROLEUM BULK STATIONS AND TERMINALS
p462
sV2711
p463
VNEWSPAPERS: PUBLISHING, OR PUBLISHING AND PRINTING
p464
sV8422
p465
VARBORETA AND BOTANICAL OR ZOOLOGICAL GARDENS
p466
sV8052
p467
VINTERMEDIATE CARE FACILITIES
p468
sV2653
p469
VCORRUGATED AND SOLID FIBER BOXES
p470
sV2652
p471
VSETUP PAPERBOARD BOXES
p472
sV2657
p473
VFOLDING PAPERBOARD BOXES, INCLUDING SANITARY
p474
sV2656
p475
VSANITARY FOOD CONTAINERS, EXCEPT FOLDING
p476
sV2655
p477
VFIBER CANS, TUBES, DRUMS, AND SIMILAR PRODUCTS
p478
sV7221
p479
VPHOTOGRAPHIC STUDIOS, PORTRAIT
p480
sV5078
p481
VREFRIGERATION EQUIPMENT AND SUPPLIES
p482
sV7389
p483
VBUSINESS SERVICES
p484
sV3412
p485
VMETAL SHIPPING BARRELS, DRUMS, KEGS, AND PAILS
p486
sV3411
p487
VMETAL CANS
p488
sV5072
p489
VHARDWARE
p490
sV4225
p491
VGENERAL WAREHOUSING AND STORAGE
p492
sV4226
p493
VSPECIAL WAREHOUSING AND STORAGE
p494
sV7381
p495
VDETECTIVE, GUARD, AND ARMORED CAR SERVICES
p496
sV4221
p497
VFARM PRODUCT WAREHOUSING AND STORAGE
p498
sV4222
p499
VREFRIGERATED WAREHOUSING AND STORAGE
p500
sV2591
p501
VDRAPERY HARDWARE AND WINDOW BLINDS AND SHADES
p502
sV2037
p503
VFROZEN FRUITS, FRUIT JUICES, AND VEGETABLES
p504
sV3799
p505
VTRANSPORTATION EQUIPMENT
p506
sV9532
p507
VADMINISTRATION OF URBAN PLANNING AND COMMUNITY AND RURAL DEVELOPMENT
p508
sV3795
p509
VTANKS AND TANK COMPONENTS
p510
sV6019
p511
VCENTRAL RESERVE DEPOSITORY INSTITUTIONS
p512
sV5039
p513
VCONSTRUCTION MATERIALS
p514
sV5621
p515
VWOMEN'S CLOTHING STORES
p516
sV3792
p517
VTRAVEL TRAILERS AND CAMPERS
p518
sV7694
p519
VARMATURE REWINDING SHOPS
p520
sV6221
p521
VCOMMODITY CONTRACTS BROKERS AND DEALERS
p522
sV6141
p523
VPERSONAL CREDIT INSTITUTIONS
p524
sV2015
p525
VPOULTRY SLAUGHTERING AND PROCESSING
p526
sV8099
p527
VHEALTH AND ALLIED SERVICES
p528
sV2011
p529
VMEAT PACKING PLANTS
p530
sV7699
p531
VREPAIR SHOPS AND RELATED SERVICES
p532
sV2013
p533
VSAUSAGES AND OTHER PREPARED MEAT PRODUCTS
p534
sV3568
p535
VMECHANICAL POWER TRANSMISSION EQUIPMENT
p536
sV5032
p537
VBRICK, STONE, AND RELATED CONSTRUCTION MATERIALS
p538
sV3931
p539
VMUSICAL INSTRUMENTS
p540
sV6794
p541
VPATENT OWNERS AND LESSORS
p542
sV5033
p543
VROOFING, SIDING, AND INSULATION MATERIALS
p544
sV5995
p545
VOPTICAL GOODS STORES
p546
sV5994
p547
VNEWS DEALERS AND NEWSSTANDS
p548
sV4731
p549
VARRANGEMENT OF TRANSPORTATION OF FREIGHT AND CARGO
p550
sV8059
p551
VNURSING AND PERSONAL CARE FACILITIES
p552
sV5993
p553
VTOBACCO STORES AND STANDS
p554
sV5992
p555
VFLORISTS
p556
sV5031
p557
VLUMBER, PLYWOOD, MILLWORK, AND WOOD PANELS
p558
sV5999
p559
VMISCELLANEOUS RETAIL STORES
p560
sV3562
p561
VBALL AND ROLLER BEARINGS
p562
sV3563
p563
VAIR AND GAS COMPRESSORS
p564
sV3561
p565
VPUMPS AND PUMPING EQUIPMENT
p566
sV3566
p567
VSPEED CHANGERS, INDUSTRIAL HIGH-SPEED DRIVES, AND GEARS
p568
sV3567
p569
VINDUSTRIAL PROCESS FURNACES AND OVENS
p570
sV3564
p571
VINDUSTRIAL AND COMMERCIAL FANS AND BLOWERS AND AIR PURIFICATION E
p572
sV3565
p573
VPACKAGING MACHINERY
p574
sV4131
p575
VINTERCITY AND RURAL BUS TRANSPORTATION
p576
sV3241
p577
VCEMENT, HYDRAULIC
p578
sV3569
p579
VGENERAL INDUSTRIAL MACHINERY AND EQUIPMENT
p580
sV7311
p581
VADVERTISING AGENCIES
p582
sV0921
p583
VFISH HATCHERIES AND PRESERVES
p584
sV7312
p585
VOUTDOOR ADVERTISING SERVICES
p586
sV3841
p587
VSURGICAL AND MEDICAL INSTRUMENTS AND APPARATUS
p588
sV3843
p589
VDENTAL EQUIPMENT AND SUPPLIES
p590
sV3842
p591
VORTHOPEDIC, PROSTHETIC, AND SURGICAL APPLIANCES AND SUPPLIES
p592
sV3845
p593
VELECTROMEDICAL AND ELECTROTHERAPEUTIC APPARATUS
p594
sV3844
p595
VX-RAY APPARATUS AND TUBES AND RELATED IRRADIATION APPARATUS
p596
sV4482
p597
VFERRIES
p598
sV5699
p599
VMISCELLANEOUS APPAREL AND ACCESSORY STORES
p600
sV4489
p601
VWATER TRANSPORTATION OF PASSENGERS
p602
sV6531
p603
VREAL ESTATE AGENTS AND MANAGERS
p604
sV5271
p605
VMOBILE HOME DEALERS
p606
sV1481
p607
VNONMETALLIC MINERALS SERVICES, EXCEPT FUELS
p608
sV7033
p609
VRECREATIONAL VEHICLE PARKS AND CAMPSITES
p610
sV5499
p611
VMISCELLANEOUS FOOD STORES
p612
sV3713
p613
VTRUCK AND BUS BODIES
p614
sV6799
p615
VINVESTORS
p616
sV2411
p617
VLOGGING
p618
sV1711
p619
VPLUMBING, HEATING AND AIR-CONDITIONING
p620
sV5251
p621
VHARDWARE STORES
p622
sV4729
p623
VARRANGEMENT OF PASSENGER TRANSPORTATION
p624
sV4725
p625
VTOUR OPERATORS
p626
sV4724
p627
VTRAVEL AGENCIES
p628
sV5311
p629
VDEPARTMENT STORES
p630
sV8621
p631
VPROFESSIONAL MEMBERSHIP ORGANIZATIONS
p632
sV8731
p633
VCOMMERCIAL PHYSICAL AND BIOLOGICAL RESEARCH
p634
sV6311
p635
VLIFE INSURANCE
p636
sV5961
p637
VCATALOG AND MAIL-ORDER HOUSES
p638
sV5962
p639
VAUTOMATIC MERCHANDISING MACHINE OPERATORS
p640
sV5963
p641
VDIRECT SELLING ESTABLISHMENTS
p642
sV3661
p643
VTELEPHONE AND TELEGRAPH APPARATUS
p644
sV3663
p645
VRADIO AND TELEVISION BROADCASTING AND COMMUNICATIONS EQUIPMENT
p646
sV2281
p647
VYARN SPINNING MILLS
p648
sV2282
p649
VACETATE FILAMENT YARN: THROWING, TWISTING, WINDING, OR SPOOLING
p650
sV7372
p651
VPREPACKAGED SOFTWARE
p652
sV2284
p653
VTHREAD MILLS
p654
sV3743
p655
VRAILROAD EQUIPMENT
p656
sV3151
p657
VLEATHER GLOVES AND MITTENS
p658
sV7623
p659
VREFRIGERATION AND AIR-CONDITIONING SERVICE AND REPAIR SHOPS
p660
sV7622
p661
VRADIO AND TELEVISION REPAIR SHOPS
p662
sV2836
p663
VBIOLOGICAL PRODUCTS, EXCEPT DIAGNOSTIC SUBSTANCES
p664
sV2835
p665
VIN VITRO AND IN VIVO DIAGNOSTIC SUBSTANCES
p666
sV2834
p667
VPHARMACEUTICAL PREPARATIONS
p668
sV2833
p669
VMEDICINAL CHEMICALS AND BOTANICAL PRODUCTS
p670
sV5943
p671
VSTATIONERY STORES
p672
sV2791
p673
VTYPESETTING
p674
sV9451
p675
VADMINISTRATION OF VETERANS' AFFAIRS, EXCEPT HEALTH AND INSURANCE
p676
sV2273
p677
VCARPETS AND RUGS
p678
sV3399
p679
VPRIMARY METAL PRODUCTS
p680
sV2796
p681
VPLATEMAKING AND RELATED SERVICES
p682
sV3011
p683
VTIRES AND INNER TUBES
p684
sV3493
p685
VSTEEL SPRINGS, EXCEPT WIRE
p686
sV6732
p687
VEDUCATIONAL, RELIGIOUS, AND CHARITABLE TRUSTS
p688
sV4971
p689
VIRRIGATION SYSTEMS
p690
sV0211
p691
VBEEF CATTLE FEEDLOTS
p692
sV0213
p693
VHOGS
p694
sV0212
p695
VBEEF CATTLE, EXCEPT FEEDLOTS
p696
sV0742
p697
VVETERINARY SERVICES FOR ANIMAL SPECIALTIES
p698
sV0741
p699
VVETERINARY SERVICES FOR LIVESTOCK
p700
sV0219
p701
VGENERAL LIVESTOCK, EXCEPT DAIRY AND POULTRY
p702
sV0191
p703
VGENERAL FARMS, PRIMARILY CROP
p704
sV2371
p705
VFUR GOODS
p706
sV3593
p707
VFLUID POWER CYLINDERS AND ACTUATORS
p708
sV3592
p709
VCARBURETORS, PISTONS, PISTON RINGS, AND VALVES
p710
sV8051
p711
VSKILLED NURSING CARE FACILITIES
p712
sV1222
p713
VBITUMINOUS COAL UNDERGROUND MINING
p714
sV1221
p715
VBITUMINOUS COAL AND LIGNITE SURFACE MINING
p716
sV3594
p717
VFLUID POWER PUMPS AND MOTORS
p718
sV4822
p719
VTELEGRAPH AND OTHER MESSAGE COMMUNICATIONS
p720
sV3599
p721
VINDUSTRIAL AND COMMERCIAL MACHINERY AND EQUIPMENT, NOT ELSEWHERE
p722
sV2451
p723
VMOBILE HOMES
p724
sV2599
p725
VFURNITURE AND FIXTURES
p726
sV9531
p727
VADMINISTRATION OF HOUSING PROGRAMS
p728
sV2452
p729
VPREFABRICATED WOOD BUILDINGS AND COMPONENTS
p730
sV5661
p731
VSHOE STORES
p732
sV4432
p733
VFREIGHT TRANSPORTATION ON THE GREAT LAKES&die;ST. LAWRENCE SEAWAY
p734
sV8299
p735
VSCHOOLS AND EDUCATIONAL SERVICES
p736
sV3823
p737
VINDUSTRIAL INSTRUMENTS FOR MEASUREMENT, DISPLAY, AND CONTROL OF P
p738
sV7911
p739
VDANCE STUDIOS, SCHOOLS, AND HALLS
p740
sV8111
p741
VLEGAL SERVICES
p742
sV2051
p743
VBREAD AND OTHER BAKERY PRODUCTS, EXCEPT COOKIES AND CRACKERS
p744
sV3699
p745
VELECTRICAL MACHINERY, EQUIPMENT, AND SUPPLIES, NOT ELSEWHERE CLAS
p746
sV2053
p747
VFROZEN BAKERY PRODUCTS, EXCEPT BREAD
p748
sV2052
p749
VCOOKIES AND CRACKERS
p750
sV4941
p751
VWATER SUPPLY
p752
sV6289
p753
VSERVICES ALLIED WITH THE EXCHANGE OF SECURITIES OR COMMODITIES, N
p754
sV3691
p755
VSTORAGE BATTERIES
p756
sV3692
p757
VPRIMARY BATTERIES, DRY AND WET
p758
sV5541
p759
VGASOLINE SERVICE STATIONS
p760
sV3694
p761
VELECTRICAL EQUIPMENT FOR INTERNAL COMBUSTION ENGINES
p762
sV3695
p763
VMAGNETIC AND OPTICAL RECORDING MEDIA
p764
sV6282
p765
VINVESTMENT ADVICE
p766
sV3089
p767
VPLASTICS PRODUCTS
p768
sV3088
p769
VPLASTICS PLUMBING FIXTURES
p770
sV4925
p771
VMIXED, MANUFACTURED, OR LIQUEFIED PETROLEUM GAS PRODUCTION AND/OR
p772
sV3085
p773
VPLASTICS BOTTLES
p774
sV2111
p775
VCIGARETTES
p776
sV3087
p777
VCUSTOM COMPOUNDING OF PURCHASED PLASTICS RESINS
p778
sV3086
p779
VPLASTICS FOAM PRODUCTS
p780
sV3081
p781
VUNSUPPORTED PLASTICS FILM AND SHEET
p782
sV5399
p783
VMISCELLANEOUS GENERAL MERCHANDISE STORES
p784
sV3083
p785
VLAMINATED PLASTICS PLATE, SHEET, AND PROFILE SHAPES
p786
sV3082
p787
VUNSUPPORTED PLASTICS PROFILE SHAPES
p788
sV2621
p789
VPAPER MILLS
p790
sV7336
p791
VCOMMERCIAL ART AND GRAPHIC DESIGN
p792
sV3873
p793
VWATCHES, CLOCKS, CLOCKWORK OPERATED DEVICES, AND PARTS
p794
sV7335
p795
VCOMMERCIAL PHOTOGRAPHY
p796
sV3524
p797
VBLOWERS, RESIDENTIAL LAWN
p798
sV4151
p799
VSCHOOL BUSES
p800
sV3523
p801
VFARM MACHINERY AND EQUIPMENT
p802
sV8221
p803
VCOLLEGES, UNIVERSITIES, AND PROFESSIONAL SCHOOLS
p804
sV3084
p805
VPLASTICS PIPE
p806
sV7359
p807
VEQUIPMENT RENTAL AND LEASING
p808
sV9621
p809
VREGULATION AND ADMINISTRATION OF TRANSPORTATION PROGRAMS
p810
sV6361
p811
VTITLE INSURANCE
p812
sV3281
p813
VCUT STONE AND STONE PRODUCTS
p814
sV7218
p815
VINDUSTRIAL LAUNDERERS
p816
sV7219
p817
VLAUNDRY AND GARMENT SERVICES
p818
sV3449
p819
VMISCELLANEOUS STRUCTURAL METALWORK
p820
sV3448
p821
VPREFABRICATED METAL BUILDINGS AND COMPONENTS
p822
sV5719
p823
VMISCELLANEOUS HOMEFURNISHINGS STORES
p824
sV3444
p825
VSHEET METALWORK
p826
sV7212
p827
VGARMENT PRESSING, AND AGENTS FOR LAUNDRIES AND DRY CLEANERS
p828
sV3446
p829
VARCHITECTURAL AND ORNAMENTAL METALWORK
p830
sV3441
p831
VFABRICATED STRUCTURAL METAL
p832
sV3274
p833
VLIME
p834
sV3443
p835
VFABRICATED PLATE WORK (BOILER SHOPS)
p836
sV3442
p837
VMETAL DOORS, SASH, FRAMES, MOLDING, AND TRIM
p838
sV2024
p839
VICE CREAM AND FROZEN DESSERTS
p840
sV7549
p841
VAUTOMOTIVE SERVICES, EXCEPT REPAIR AND CARWASHES
p842
sV2754
p843
VCOMMERCIAL PRINTING, GRAVURE
p844
sV3679
p845
VELECTRONIC COMPONENTS
p846
sV2752
p847
VCOMMERCIAL PRINTING, LITHOGRAPHIC
p848
sV2021
p849
VCREAMERY BUTTER
p850
sV2022
p851
VNATURAL, PROCESSED, AND IMITATION CHEESE
p852
sV2023
p853
VDRY, CONDENSED, AND EVAPORATED DAIRY PRODUCTS
p854
sV2759
p855
VCOMMERCIAL PRINTING
p856
sV5511
p857
VMOTOR VEHICLE DEALERS (NEW AND USED)
p858
sV3548
p859
VELECTRIC AND GAS WELDING AND SOLDERING EQUIPMENT
p860
sV3672
p861
VPRINTED CIRCUIT BOARDS
p862
sV0241
p863
VDAIRY FARMS
p864
sV9199
p865
VGENERAL GOVERNMENT
p866
sV2084
p867
VWINES, BRANDY, AND BRANDY SPIRITS
p868
sV5211
p869
VLUMBER AND OTHER BUILDING MATERIALS DEALERS
p870
sV8011
p871
VOFFICES AND CLINICS OF DOCTORS OF MEDICINE
p872
sV4911
p873
VELECTRIC SERVICES
p874
sV3231
p875
VGLASS PRODUCTS, MADE OF PURCHASED GLASS
p876
sV5199
p877
VNONDURABLE GOODS
p878
sV3677
p879
VELECTRONIC COILS, TRANSFORMERS, AND OTHER INDUCTORS
p880
sV7322
p881
VADJUSTMENT AND COLLECTION SERVICES
p882
sV7323
p883
VCREDIT REPORTING SERVICES
p884
sV5194
p885
VTOBACCO AND TOBACCO PRODUCTS
p886
sV5191
p887
VFARM SUPPLIES
p888
sV0811
p889
VTIMBER TRACTS
p890
sV1611
p891
VHIGHWAY AND STREET CONSTRUCTION, EXCEPT ELEVATED HIGHWAYS
p892
sV3674
p893
VSEMICONDUCTORS AND RELATED DEVICES
p894
sV3675
p895
VELECTRONIC CAPACITORS
p896
sV2873
p897
VNITROGENOUS FERTILIZERS
p898
sV2875
p899
VFERTILIZERS, MIXING ONLY
p900
sV2874
p901
VPHOSPHATIC FERTILIZERS
p902
sV3621
p903
VMOTORS AND GENERATORS
p904
sV2879
p905
VPESTICIDES AND AGRICULTURAL CHEMICALS
p906
sV3625
p907
VRELAYS AND INDUSTRIAL CONTROLS
p908
sV3624
p909
VCARBON AND GRAPHITE PRODUCTS
p910
sV7334
p911
VPHOTOCOPYING AND DUPLICATING SERVICES
p912
sV3355
p913
VALUMINUM ROLLING AND DRAWING
p914
sV3354
p915
VALUMINUM EXTRUDED PRODUCTS
p916
sV3357
p917
VDRAWING AND INSULATING OF NONFERROUS WIRE
p918
sV3356
p919
VROLLING, DRAWING, AND EXTRUDING OF NONFERROUS METALS, EXCEPT COPP
p920
sV3351
p921
VROLLING, DRAWING, AND EXTRUDING OF COPPER
p922
sV3353
p923
VALUMINUM SHEET, PLATE, AND FOIL
p924
sV5092
p925
VTOYS AND HOBBY GOODS AND SUPPLIES
p926
sV5074
p927
VPLUMBING AND HEATING EQUIPMENT AND SUPPLIES (HYDRONICS)
p928
sV3052
p929
VRUBBER AND PLASTICS HOSE AND BELTING
p930
sV3053
p931
VGASKETS, PACKING, AND SEALING DEVICES
p932
sV3578
p933
VCALCULATING AND ACCOUNTING MACHINES, EXCEPT ELECTRONIC COMPUTERS
p934
sV2331
p935
VWOMEN'S, MISSES', AND JUNIORS' BLOUSES AND SHIRTS
p936
sV1041
p937
VGOLD ORES
p938
sV1479
p939
VCHEMICAL AND FERTILIZER MINERAL MINING
p940
sV2335
p941
VWOMEN'S, MISSES', AND JUNIORS' DRESSES
p942
sV2337
p943
VWOMEN'S, MISSES', AND JUNIORS' SUITS, SKIRTS, AND COATS
p944
sV2231
p945
VBROADWOVEN FABRIC MILLS, WOOL (INCLUDING DYEING AND FINISHING)
p946
sV2339
p947
VWOMEN'S, MISSES', AND JUNIORS' OUTERWEAR
p948
sV5441
p949
VCANDY, NUT, AND CONFECTIONERY STORES
p950
sV7353
p951
VHEAVY CONSTRUCTION EQUIPMENT RENTAL AND LEASING
p952
sV3575
p953
VCOMPUTER TERMINALS
p954
sV7352
p955
VMEDICAL EQUIPMENT RENTAL AND LEASING
p956
sV5093
p957
VSCRAP AND WASTE MATERIALS
p958
sV5091
p959
VSPORTING AND RECREATIONAL GOODS AND SUPPLIES
p960
sV1761
p961
VROOFING, SIDING, AND SHEET METAL WORK
p962
sV4121
p963
VTAXICABS
p964
sV0134
p965
VIRISH POTATOES
p966
sV3714
p967
VMOTOR VEHICLE PARTS AND ACCESSORIES
p968
sV3716
p969
VMOTOR HOMES
p970
sV3711
p971
VMOTOR VEHICLES AND PASSENGER CAR BODIES
p972
sV0131
p973
VCOTTON
p974
sV0132
p975
VTOBACCO
p976
sV0133
p977
VSUGARCANE AND SUGAR BEETS
p978
sV3496
p979
VMISCELLANEOUS FABRICATED WIRE PRODUCTS
p980
sV3497
p981
VMETAL FOIL AND LEAF
p982
sV3494
p983
VVALVES AND PIPE FITTINGS
p984
sV3495
p985
VWIRE SPRINGS
p986
sV3492
p987
VFLUID POWER VALVES AND HOSE FITTINGS
p988
sV0139
p989
VFIELD CROPS, EXCEPT CASH GRAINS
p990
sV3479
p991
VCOATING, ENGRAVING, AND ALLIED SERVICES
p992
sV2095
p993
VROASTED COFFEE
p994
sV2097
p995
VMANUFACTURED ICE
p996
sV2096
p997
VPOTATO CHIPS, CORN CHIPS, AND SIMILAR SNACKS
p998
sV2091
p999
VCANNED AND CURED FISH AND SEAFOODS
p1000
sV8322
p1001
VINDIVIDUAL AND FAMILY SOCIAL SERVICES
p1002
sV2092
p1003
VPREPARED FRESH OR FROZEN FISH AND SEAFOODS
p1004
sV2099
p1005
VFOOD PREPARATIONS
p1006
sV2098
p1007
VMACARONI, SPAGHETTI, VERMICELLI, AND NOODLES
p1008
sV3652
p1009
VPHONOGRAPH RECORDS AND PRERECORDED AUDIO TAPES AND DISKS
p1010
sV1542
p1011
VGENERAL CONTRACTORS-NONRESIDENTIAL BUILDINGS, OTHER THAN INDUSTRIAL
p1012
sV1541
p1013
VGENERAL CONTRACTORS-INDUSTRIAL BUILDINGS AND WAREHOUSES
p1014
sV7331
p1015
VDIRECT MAIL ADVERTISING SERVICES
p1016
sV8711
p1017
VENGINEERING SERVICES
p1018
sV8712
p1019
VARCHITECTURAL SERVICES
p1020
sV8713
p1021
VSURVEYING SERVICES
p1022
sV8651
p1023
VPOLITICAL ORGANIZATIONS
p1024
sV7539
p1025
VAUTOMOTIVE REPAIR SHOPS
p1026
sV2241
p1027
VNARROW FABRIC AND OTHER SMALLWARES MILLS: COTTON, WOOL, SILK, AND
p1028
sV2384
p1029
VROBES AND DRESSING GOWNS
p1030
sV5065
p1031
VELECTRONIC PARTS AND EQUIPMENT
p1032
sV5064
p1033
VELECTRICAL APPLIANCES, TELEVISION AND RADIO SETS
p1034
sV2387
p1035
VAPPAREL BELTS
p1036
sV1311
p1037
VCRUDE PETROLEUM AND NATURAL GAS
p1038
sV5149
p1039
VGROCERIES AND RELATED PRODUCTS
p1040
sV5146
p1041
VFISH AND SEAFOODS
p1042
sV3596
p1043
VSCALES AND BALANCES, EXCEPT LABORATORY
p1044
sV5144
p1045
VPOULTRY AND POULTRY PRODUCTS
p1046
sV5145
p1047
VCONFECTIONERY
p1048
sV5142
p1049
VPACKAGED FROZEN FOODS
p1050
sV5143
p1051
VDAIRY PRODUCTS, EXCEPT DRIED OR CANNED
p1052
sV5141
p1053
VGROCERIES, GENERAL LINE
p1054
sV2262
p1055
VFINISHERS OF BROADWOVEN FABRICS OF MANMADE FIBER AND SILK
p1056
sV8082
p1057
VHOME HEALTH CARE SERVICES
p1058
sV8021
p1059
VOFFICES AND CLINICS OF DENTISTS
p1060
sV4231
p1061
VTERMINAL AND JOINT TERMINAL MAINTENANCE FACILITIES FOR MOTOR FREI
p1062
sV7538
p1063
VGENERAL AUTOMOTIVE REPAIR SHOPS
p1064
sV7536
p1065
VAUTOMOTIVE GLASS REPLACEMENT SHOPS
p1066
sV9211
p1067
VCOURTS
p1068
sV5599
p1069
VAUTOMOTIVE DEALERS
p1070
sV5611
p1071
VMEN'S AND BOYS' CLOTHING AND ACCESSORY STORES
p1072
sV8733
p1073
VNONCOMMERCIAL RESEARCH ORGANIZATIONS
p1074
sV2068
p1075
VSALTED AND ROASTED NUTS AND SEEDS
p1076
sV4424
p1077
VDEEP SEA DOMESTIC TRANSPORTATION OF FREIGHT
p1078
sV1389
p1079
VOIL AND GAS FIELD SERVICES
p1080
sV2141
p1081
VTOBACCO STEMMING AND REDRYING
p1082
sV7211
p1083
VPOWER LAUNDRIES, FAMILY AND COMMERCIAL
p1084
sV2061
p1085
VCANE SUGAR, EXCEPT REFINING
p1086
sV2062
p1087
VCANE SUGAR REFINING
p1088
sV2063
p1089
VBEET SUGAR
p1090
sV2064
p1091
VCANDY AND OTHER CONFECTIONERY PRODUCTS
p1092
sV1381
p1093
VDRILLING OIL AND GAS WELLS
p1094
sV1382
p1095
VOIL AND GAS FIELD EXPLORATION SERVICES
p1096
sV2067
p1097
VCHEWING GUM
p1098
sV3827
p1099
VOPTICAL INSTRUMENTS AND LENSES
p1100
sV3826
p1101
VLABORATORY ANALYTICAL INSTRUMENTS
p1102
sV3825
p1103
VINSTRUMENTS FOR MEASURING AND TESTING OF ELECTRICITY AND ELECTRIC
p1104
sV3824
p1105
VTOTALIZING FLUID METERS AND COUNTING DEVICES
p1106
sV3669
p1107
VCOMMUNICATIONS EQUIPMENT
p1108
sV3822
p1109
VAUTOMATIC CONTROLS FOR REGULATING RESIDENTIAL AND COMMERCIAL ENVI
p1110
sV3821
p1111
VLABORATORY APPARATUS AND FURNITURE
p1112
sV4214
p1113
VLOCAL TRUCKING WITH STORAGE
p1114
sV5713
p1115
VFLOOR COVERING STORES
p1116
sV3942
p1117
VDOLLS AND STUFFED TOYS
p1118
sV3944
p1119
VGAMES, TOYS, AND CHILDREN'S VEHICLES, EXCEPT DOLLS AND BICYCLES
p1120
sV8042
p1121
VOFFICES AND CLINICS OF OPTOMETRISTS
p1122
sV3829
p1123
VMEASURING AND CONTROLLING DEVICES
p1124
sV5712
p1125
VFURNITURE STORES
p1126
sV7382
p1127
VSECURITY SYSTEMS SERVICES
p1128
sV0851
p1129
VFORESTRY SERVICES
p1130
sV3275
p1131
VGYPSUM PRODUCTS
p1132
sV3272
p1133
VCONCRETE PRODUCTS, EXCEPT BLOCK AND BRICK
p1134
sV3273
p1135
VREADY-MIXED CONCRETE
p1136
sV3271
p1137
VCONCRETE BLOCK AND BRICK
p1138
sV9711
p1139
VNATIONAL SECURITY
p1140
sV7217
p1141
VCARPET AND UPHOLSTERY CLEANING
p1142
sV3585
p1143
VAIR-CONDITIONING AND WARM AIR HEATING EQUIPMENT AND COMMERCIAL AN
p1144
sV5099
p1145
VDURABLE GOODS
p1146
sV0919
p1147
VMISCELLANEOUS MARINE PRODUCTS
p1148
sV3579
p1149
VOFFICE MACHINES
p1150
sV3471
p1151
VELECTROPLATING, PLATING, POLISHING, ANODIZING, AND COLORING
p1152
sV7241
p1153
VBARBER SHOPS
p1154
sV0912
p1155
VFINFISH
p1156
sV0913
p1157
VSHELLFISH
p1158
sV3577
p1159
VCOMPUTER PERIPHERAL EQUIPMENT
p1160
sV4212
p1161
VLOCAL TRUCKING WITHOUT STORAGE
p1162
sV3571
p1163
VELECTRONIC COMPUTERS
p1164
sV2026
p1165
VFLUID MILK
p1166
sV3572
p1167
VCOMPUTER STORAGE DEVICES
p1168
sV5571
p1169
VMOTORCYCLE DEALERS
p1170
sV4493
p1171
VMARINAS
p1172
sV4492
p1173
VTOWING AND TUGBOAT SERVICES
p1174
sV4491
p1175
VMARINE CARGO HANDLING
p1176
sV8049
p1177
VOFFICES AND CLINICS OF HEALTH PRACTITIONERS, NOT ELSEWHERE CLASSI
p1178
sV7534
p1179
VTIRE RETREADING AND REPAIR SHOPS
p1180
sV7537
p1181
VAUTOMOTIVE TRANSMISSION REPAIR SHOPS
p1182
sV5075
p1183
VWARM AIR HEATING AND AIR-CONDITIONING EQUIPMENT AND SUPPLIES
p1184
sV9121
p1185
VLEGISLATIVE BODIES
p1186
sV2761
p1187
VMANIFOLD BUSINESS FORMS
p1188
sV4499
p1189
VWATER TRANSPORTATION SERVICES
p1190
sV7532
p1191
VTOP, BODY, AND UPHOLSTERY REPAIR SHOPS AND PAINT SHOPS
p1192
sV7383
p1193
VNEWS SYNDICATES
p1194
sV6211
p1195
VSECURITY BROKERS, DEALERS, AND FLOTATION COMPANIES
p1196
sV7021
p1197
VROOMING AND BOARDING HOUSES
p1198
sV3313
p1199
VELECTROMETALLURGICAL PRODUCTS, EXCEPT STEEL
p1200
sV3312
p1201
VSTEEL WORKS, BLAST FURNACES (INCLUDING COKE OVENS), AND ROLLING M
p1202
sV3315
p1203
VSTEEL WIRE DRAWING AND STEEL NAILS AND SPIKES
p1204
sV3317
p1205
VSTEEL PIPE AND TUBES
p1206
sV3316
p1207
VCOLD-ROLLED STEEL SHEET, STRIP, AND BARS
p1208
sV0291
p1209
VGENERAL FARMS, PRIMARILY LIVESTOCK AND ANIMAL SPECIALTIES
p1210
sV1721
p1211
VPAINTING AND PAPER HANGING
p1212
sV8811
p1213
VPRIVATE HOUSEHOLDS
p1214
sV0762
p1215
VFARM MANAGEMENT SERVICES
p1216
sV0179
p1217
VFRUITS AND TREE NUTS
p1218
sV2299
p1219
VTEXTILE GOODS
p1220
sV2298
p1221
VCORDAGE AND TWINE
p1222
sV0273
p1223
VANIMAL AQUACULTURE
p1224
sV0272
p1225
VHORSES AND OTHER EQUINES
p1226
sV0271
p1227
VFUR-BEARING ANIMALS AND RABBITS
p1228
sV8748
p1229
VBUSINESS CONSULTING SERVICES
p1230
sV3751
p1231
VMOTORCYCLES, BICYCLES, AND PARTS
p1232
sV0171
p1233
VBERRY CROPS
p1234
sV0172
p1235
VGRAPES
p1236
sV0173
p1237
VTREE NUTS
p1238
sV2297
p1239
VNONWOVEN FABRICS
p1240
sV2296
p1241
VTIRE CORD AND FABRICS
p1242
sV2295
p1243
VCOATED FABRICS, NOT RUBBERIZED
p1244
sV5131
p1245
VPIECE GOODS, NOTIONS, AND OTHER DRY GOODS
p1246
sV3161
p1247
VLUGGAGE
p1248
sV7011
p1249
VHOTELS AND MOTELS
p1250
sV1423
p1251
VCRUSHED AND BROKEN GRANITE
p1252
sV1422
p1253
VCRUSHED AND BROKEN LIMESTONE
p1254
sV0181
p1255
VORNAMENTAL FLORICULTURE AND NURSERY PRODUCTS
p1256
sV3369
p1257
VNONFERROUS FOUNDRIES, EXCEPT ALUMINUM AND COPPER
p1258
sV0182
p1259
VFOOD CROPS GROWN UNDER COVER
p1260
sV1429
p1261
VCRUSHED AND BROKEN STONE
p1262
sV3365
p1263
VALUMINUM FOUNDRIES
p1264
sV3366
p1265
VCOPPER FOUNDRIES
p1266
sV3363
p1267
VALUMINUM DIE-CASTINGS
p1268
sV6324
p1269
VHOSPITAL AND MEDICAL SERVICE PLANS
p1270
sV2369
p1271
VGIRLS', CHILDREN'S, AND INFANTS' OUTERWEAR
p1272
sV7361
p1273
VEMPLOYMENT AGENCIES
p1274
sV1031
p1275
VLEAD AND ZINC ORES
p1276
sV9651
p1277
VREGULATION, LICENSING, AND INSPECTION OF MISCELLANEOUS COMMERCIAL
p1278
sV2361
p1279
VGIRLS', CHILDREN'S, AND INFANTS' DRESSES, BLOUSES, AND SHIRTS
p1280
sV2429
p1281
VSPECIAL PRODUCT SAWMILLS
p1282
sV9131
p1283
VEXECUTIVE AND LEGISLATIVE OFFICES COMBINED
p1284
sV7922
p1285
VTHEATRICAL PRODUCERS (EXCEPT MOTION PICTURE) AND MISCELLANEOUS TH
p1286
sV6321
p1287
VACCIDENT AND HEALTH INSURANCE
p1288
sV9229
p1289
VPUBLIC ORDER AND SAFETY
p1290
sV4812
p1291
VRADIOTELEPHONE COMMUNICATIONS
p1292
sV5021
p1293
VFURNITURE
p1294
sV2421
p1295
VSAWMILLS AND PLANING MILLS, GENERAL
p1296
sV5023
p1297
VHOMEFURNISHINGS
p1298
sV8062
p1299
VGENERAL MEDICAL AND SURGICAL HOSPITALS
p1300
sV8063
p1301
VPSYCHIATRIC HOSPITALS
p1302
sV2426
p1303
VHARDWOOD DIMENSION AND FLOORING MILLS
p1304
sV7929
p1305
VBANDS, ORCHESTRAS, ACTORS, AND OTHER ENTERTAINERS AND ENTERTAINMENT
p1306
sV3728
p1307
VAIRCRAFT PARTS AND AUXILIARY EQUIPMENT
p1308
sV3724
p1309
VAIRCRAFT ENGINES AND ENGINE PARTS
p1310
sV4449
p1311
VWATER TRANSPORTATION OF FREIGHT
p1312
sV7384
p1313
VPHOTOFINISHING LABORATORIES
p1314
sV7841
p1315
VVIDEO TAPE RENTAL
p1316
sV3721
p1317
VAIRCRAFT
p1318
sV5651
p1319
VFAMILY CLOTHING STORES
p1320
sV4931
p1321
VELECTRIC AND OTHER SERVICES COMBINED
p1322
sV4932
p1323
VGAS AND OTHER SERVICES COMBINED
p1324
sV2899
p1325
VCHEMICALS AND CHEMICAL PREPARATIONS
p1326
sV8041
p1327
VOFFICES AND CLINICS OF CHIROPRACTORS
p1328
sV6351
p1329
VSURETY INSURANCE
p1330
sV2895
p1331
VCARBON BLACK
p1332
sV4939
p1333
VCOMBINATION UTILITIES
p1334
sV4833
p1335
VTELEVISION BROADCASTING STATIONS
p1336
sV4832
p1337
VRADIO BROADCASTING STATIONS
p1338
sV2891
p1339
VADHESIVES AND SEALANTS
p1340
sV4522
p1341
VAIR TRANSPORTATION, NONSCHEDULED
p1342
sV2893
p1343
VPRINTING INK
p1344
sV2892
p1345
VEXPLOSIVES
p1346
sV7993
p1347
VCOIN-OPERATED AMUSEMENT DEVICES
p1348
sV1455
p1349
VKAOLIN AND BALL CLAY
p1350
sV7991
p1351
VPHYSICAL FITNESS FACILITIES
p1352
sV7997
p1353
VMEMBERSHIP SPORTS AND RECREATION CLUBS
p1354
sV2519
p1355
VHOUSEHOLD FURNITURE
p1356
sV6159
p1357
VMISCELLANEOUS BUSINESS CREDIT INSTITUTIONS
p1358
sV2514
p1359
VMETAL HOUSEHOLD FURNITURE
p1360
sV2515
p1361
VMATTRESSES, FOUNDATIONS, AND CONVERTIBLE BEDS
p1362
sV7999
p1363
VAMUSEMENT AND RECREATION SERVICES
p1364
sV2517
p1365
VWOOD TELEVISION, RADIO, PHONOGRAPH, AND SEWING MACHINE CABINETS
p1366
sV1459
p1367
VCLAY, CERAMIC, AND REFRACTORY MINERALS
p1368
sV2512
p1369
VWOOD HOUSEHOLD FURNITURE, UPHOLSTERED
p1370
sV9431
p1371
VADMINISTRATION OF PUBLIC HEALTH PROGRAMS
p1372
sV8361
p1373
VRESIDENTIAL CARE
p1374
sV3489
p1375
VORDNANCE AND ACCESSORIES
p1376
sV5111
p1377
VPRINTING AND WRITING PAPER
p1378
sV2731
p1379
VBOOKS: PUBLISHING, OR PUBLISHING AND PRINTING
p1380
sV2732
p1381
VBOOK PRINTING
p1382
sV5112
p1383
VSTATIONERY AND OFFICE SUPPLIES
p1384
sV3861
p1385
VPHOTOGRAPHIC EQUIPMENT AND SUPPLIES
p1386
sV2631
p1387
VPAPERBOARD MILLS
p1388
sV3531
p1389
VCONSTRUCTION MACHINERY AND EQUIPMENT
p1390
sV3533
p1391
VOIL AND GAS FIELD MACHINERY AND EQUIPMENT
p1392
sV3532
p1393
VMINING MACHINERY AND EQUIPMENT, EXCEPT OIL AND GAS FIELD MACHINERY
p1394
sV3535
p1395
VCONVEYORS AND CONVEYING EQUIPMENT
p1396
sV3534
p1397
VELEVATORS AND MOVING STAIRWAYS
p1398
sV3537
p1399
VINDUSTRIAL TRUCKS, TRACTORS, TRAILERS, AND STACKERS
p1400
sV3536
p1401
VOVERHEAD TRAVELING CRANES, HOISTS, AND MONORAIL SYSTEMS
p1402
sV8093
p1403
VSPECIALTY OUTPATIENT FACILITIES
p1404
sV9224
p1405
VFIRE PROTECTION
p1406
sV9223
p1407
VCORRECTIONAL INSTITUTIONS
p1408
sV5051
p1409
VMETALS SERVICE CENTERS AND OFFICES
p1410
sV5052
p1411
VCOAL AND OTHER MINERALS AND ORES
p1412
sV6552
p1413
VLAND SUBDIVIDERS AND DEVELOPERS, EXCEPT CEMETERIES
p1414
sV6553
p1415
VCEMETERY SUBDIVIDERS AND DEVELOPERS
p1416
sV5722
p1417
VHOUSEHOLD APPLIANCE STORES
p1418
sV3431
p1419
VENAMELED IRON AND METAL SANITARY WARE
p1420
sV3432
p1421
VPLUMBING FIXTURE FITTINGS AND TRIM
p1422
sV3433
p1423
VHEATING EQUIPMENT, EXCEPT ELECTRIC AND WARM AIR FURNACES
p1424
sV6411
p1425
VINSURANCE AGENTS, BROKERS, AND SERVICE
p1426
sV2741
p1427
VMISCELLANEOUS PUBLISHING
p1428
sV2035
p1429
VPICKLED FRUITS AND VEGETABLES, VEGETABLE SAUCES AND SEASONINGS, A
p1430
sV2034
p1431
VDRIED AND DEHYDRATED FRUITS, VEGETABLES, AND SOUP MIXES
p1432
sV2033
p1433
VCANNED FRUITS, VEGETABLES, PRESERVES, JAMS, AND JELLIES
p1434
sV2032
p1435
VCANNED SPECIALTIES
p1436
sV3769
p1437
VGUIDED MISSILE AND SPACE VEHICLE PARTS AND AUXILIARY EQUIPMENT, N
p1438
sV4841
p1439
VCABLE AND OTHER PAY TELEVISION SERVICES
p1440
sV2038
p1441
VFROZEN SPECIALTIES
p1442
sV3915
p1443
VJEWELERS' FINDINGS AND MATERIALS, AND LAPIDARY WORK
p1444
sV3914
p1445
VSILVERWARE, PLATED WARE, AND STAINLESS STEEL WARE
p1446
sV3911
p1447
VJEWELRY, PRECIOUS METAL
p1448
sV3949
p1449
VSPORTING AND ATHLETIC GOODS
p1450
sV3484
p1451
VSMALL ARMS
p1452
sV0783
p1453
VORNAMENTAL SHRUB AND TREE SERVICES
p1454
sV0782
p1455
VLAWN AND GARDEN SERVICES
p1456
sV0781
p1457
VLANDSCAPE COUNSELING AND PLANNING
p1458
sV6733
p1459
VTRUSTS, EXCEPT EDUCATIONAL, RELIGIOUS, AND CHARITABLE
p1460
sV6371
p1461
VPENSION, HEALTH, AND WELFARE FUNDS
p1462
sV5193
p1463
VFLOWERS, NURSERY STOCK, AND FLORISTS' SUPPLIES
p1464
sV5198
p1465
VPAINTS, VARNISHES, AND SUPPLIES
p1466
sV3544
p1467
VSPECIAL DIES AND TOOLS, DIE SETS, JIGS AND FIXTURES, AND INDUSTRIAL
p1468
sV3545
p1469
VCUTTING TOOLS, MACHINE TOOL ACCESSORIES, AND MACHINISTS' PRECISION
p1470
sV3546
p1471
VPOWER-DRIVEN HANDTOOLS
p1472
sV3547
p1473
VROLLING MILL MACHINERY AND EQUIPMENT
p1474
sV3229
p1475
VPRESSED AND BLOWN GLASS AND GLASSWARE
p1476
sV3541
p1477
VMACHINE TOOLS, METAL CUTTING TYPES
p1478
sV3542
p1479
VMACHINE TOOLS, METAL FORMING TYPES
p1480
sV3543
p1481
VINDUSTRIAL PATTERNS
p1482
sV4013
p1483
VRAILROAD SWITCHING AND TERMINAL ESTABLISHMENTS
p1484
sV4011
p1485
VRAILROADS, LINE-HAUL OPERATING
p1486
sV4924
p1487
VNATURAL GAS DISTRIBUTION
p1488
sV3221
p1489
VGLASS CONTAINERS
p1490
sV3549
p1491
VMETALWORKING MACHINERY
p1492
sV7338
p1493
VSECRETARIAL AND COURT REPORTING SERVICES
p1494
sV8331
p1495
VJOB TRAINING AND VOCATIONAL REHABILITATION SERVICES
p1496
sV9631
p1497
VREGULATION AND ADMINISTRATION OF COMMUNICATIONS, ELECTRIC, GAS, A
p1498
sV9661
p1499
VSPACE RESEARCH AND TECHNOLOGY
p1500
sV1781
p1501
VWATER WELL DRILLING
p1502
sV2844
p1503
VPERFUMES, COSMETICS, AND OTHER TOILET PREPARATIONS
p1504
sV6719
p1505
VOFFICES OF HOLDING COMPANIES
p1506
sV2842
p1507
VSPECIALTY CLEANING, POLISHING, AND SANITATION PREPARATIONS
p1508
sV2843
p1509
VSURFACE ACTIVE AGENTS, FINISHING AGENTS, SULFONATED OILS, AND ASS
p1510
sV2841
p1511
VSOAP AND OTHER DETERGENTS, EXCEPT SPECIALTY CLEANERS
p1512
sV3321
p1513
VGRAY AND DUCTILE IRON FOUNDRIES
p1514
sV3322
p1515
VMALLEABLE IRON FOUNDRIES
p1516
sV3613
p1517
VSWITCHGEAR AND SWITCHBOARD APPARATUS
p1518
sV3324
p1519
VSTEEL INVESTMENT FOUNDRIES
p1520
sV3325
p1521
VSTEEL FOUNDRIES
p1522
sV9222
p1523
VLEGAL COUNSEL AND PROSECUTION
p1524
sV5192
p1525
VBOOKS, PERIODICALS, AND NEWSPAPERS
p1526
sV5148
p1527
VFRESH FRUITS AND VEGETABLES
p1528
sV6081
p1529
VBRANCHES AND AGENCIES OF FOREIGN BANKS
p1530
sV2323
p1531
VMEN'S AND BOYS' NECKWEAR
p1532
sV2322
p1533
VMEN'S AND BOYS' UNDERWEAR AND NIGHTWEAR
p1534
sV2321
p1535
VMEN'S AND BOYS' SHIRTS, EXCEPT WORK SHIRTS
p1536
sV1771
p1537
VCONCRETE WORK
p1538
sV2326
p1539
VMEN'S AND BOYS' WORK CLOTHING
p1540
sV2325
p1541
VMEN'S AND BOYS' SEPARATE TROUSERS AND SLACKS
p1542
sV6029
p1543
VCOMMERCIAL BANKS
p1544
sV6712
p1545
VOFFICES OF BANK HOLDING COMPANIES
p1546
sV2329
p1547
VMEN'S AND BOYS' CLOTHING
p1548
sV7933
p1549
VBOWLING CENTERS
p1550
sV8211
p1551
VELEMENTARY AND SECONDARY SCHOOLS
p1552
sV9221
p1553
VPOLICE PROTECTION
p1554
sV1094
p1555
VURANIUM-RADIUM-VANADIUM ORES
p1556
sV3761
p1557
VGUIDED MISSILES AND SPACE VEHICLES
p1558
sV8222
p1559
VJUNIOR COLLEGES AND TECHNICAL INSTITUTES
p1560
sV8744
p1561
VFACILITIES SUPPORT MANAGEMENT SERVICES
p1562
sV3764
p1563
VGUIDED MISSILE AND SPACE VEHICLE PROPULSION UNITS AND PROPULSION
p1564
sV0174
p1565
VCITRUS FRUITS
p1566
sV3483
p1567
VAMMUNITION, EXCEPT FOR SMALL ARMS
p1568
sV3482
p1569
VSMALL ARMS AMMUNITION
p1570
sV1099
p1571
VMISCELLANEOUS METAL ORES
p1572
sV8631
p1573
VLABOR UNIONS AND SIMILAR LABOR ORGANIZATIONS
p1574
sV0175
p1575
VDECIDUOUS TREE FRUITS
p1576
sV5182
p1577
VWINE AND DISTILLED ALCOHOLIC BEVERAGES
p1578
sV3131
p1579
VBOOT AND SHOE CUT STOCK AND FINDINGS
p1580
sV0279
p1581
VANIMAL SPECIALTIES
p1582
sV3648
p1583
VLIGHTING EQUIPMENT
p1584
sV3647
p1585
VVEHICULAR LIGHTING EQUIPMENT
p1586
sV3646
p1587
VCOMMERCIAL, INDUSTRIAL, AND INSTITUTIONAL ELECTRIC LIGHTING FIXTU
p1588
sV3645
p1589
VRESIDENTIAL ELECTRIC LIGHTING FIXTURES
p1590
sV3644
p1591
VNONCURRENT-CARRYING WIRING DEVICES
p1592
sV3643
p1593
VCURRENT-CARRYING WIRING DEVICES
p1594
sV6022
p1595
VSTATE COMMERCIAL BANKS
p1596
sV3641
p1597
VELECTRIC LAMP BULBS AND TUBES
p1598
sV7251
p1599
VSHOE REPAIR SHOPS AND SHOESHINE PARLORS
p1600
sV2499
p1601
VWOOD PRODUCTS
p1602
sV2999
p1603
VPRODUCTS OF PETROLEUM AND COAL
p1604
sV6399
p1605
VINSURANCE CARRIERS
p1606
sV2491
p1607
VWOOD PRESERVING
p1608
sV2493
p1609
VRECONSTITUTED WOOD PRODUCTS
p1610
sV6515
p1611
VOPERATORS OF RESIDENTIAL MOBILE HOME SITES
p1612
sV2396
p1613
VAUTOMOTIVE TRIMMINGS, APPAREL FINDINGS, AND RELATED PRODUCTS
p1614
sV2397
p1615
VSCHIFFLI MACHINE EMBROIDERIES
p1616
sV2394
p1617
VCANVAS AND RELATED PRODUCTS
p1618
sV2395
p1619
VPLEATING, DECORATIVE AND NOVELTY STITCHING, AND TUCKING FOR THE T
p1620
sV2392
p1621
VHOUSE FURNISHINGS, EXCEPT CURTAINS AND DRAPERIES
p1622
sV2393
p1623
VTEXTILE BAGS
p1624
sV2259
p1625
VKNITTING MILLS
p1626
sV2258
p1627
VLACE AND WARP KNIT FABRIC MILLS
p1628
sV2257
p1629
VWEFT KNIT FABRIC MILLS
p1630
sV1411
p1631
VDIMENSION STONE
p1632
sV2254
p1633
VKNIT UNDERWEAR AND NIGHTWEAR MILLS
p1634
sV2253
p1635
VKNIT OUTERWEAR MILLS
p1636
sV2252
p1637
VHOSIERY
p1638
sV2251
p1639
VWOMEN'S FULL-LENGTH AND KNEE-LENGTH HOSIERY, EXCEPT SOCKS
p1640
sV2399
p1641
VFABRICATED TEXTILE PRODUCTS
p1642
sV5159
p1643
VFARM-PRODUCT RAW MATERIALS
p1644
sV3629
p1645
VELECTRICAL INDUSTRIAL APPARATUS
p1646
sV4899
p1647
VCOMMUNICATIONS SERVICES
p1648
sV1321
p1649
VNATURAL GAS LIQUIDS
p1650
sV5014
p1651
VTIRES AND TUBES
p1652
sV5015
p1653
VMOTOR VEHICLE PARTS, USED
p1654
sV2771
p1655
VGREETING CARDS
p1656
sV5153
p1657
VGRAIN AND FIELD BEANS
p1658
sV5154
p1659
VLIVESTOCK
p1660
sV9999
p1661
VNONCLASSIFIABLE ESTABLISHMENTS
p1662
sV7313
p1663
VRADIO, TELEVISION, AND PUBLISHERS' ADVERTISING REPRESENTATIVES
p1664
sV5136
p1665
VMEN'S AND BOYS' CLOTHING AND FURNISHINGS
p1666
sV6519
p1667
VLESSORS OF REAL PROPERTY
p1668
sV2782
p1669
VBLANKBOOKS, LOOSELEAF BINDERS AND DEVICES
p1670
sV6512
p1671
VOPERATORS OF NONRESIDENTIAL BUILDINGS
p1672
sV6513
p1673
VOPERATORS OF APARTMENT BUILDINGS
p1674
sV2789
p1675
VBOOKBINDING AND RELATED WORK
p1676
sV4412
p1677
VDEEP SEA FOREIGN TRANSPORTATION OF FREIGHT
p1678
sV6517
p1679
VLESSORS OF RAILROAD PROPERTY
p1680
sV2079
p1681
VSHORTENING, TABLE OILS, MARGARINE, AND OTHER EDIBLE FATS AND OILS
p1682
sV7521
p1683
VAUTOMOBILE PARKING
p1684
sV1521
p1685
VGENERAL CONTRACTORS-SINGLE-FAMILY HOUSES
p1686
sV1522
p1687
VGENERAL CONTRACTORS-RESIDENTIAL BUILDINGS, OTHER THAN SINGLE-FAMI
p1688
sV7533
p1689
VAUTOMOTIVE EXHAUST SYSTEM REPAIR SHOPS
p1690
sV2077
p1691
VANIMAL AND MARINE FATS AND OILS
p1692
sV2076
p1693
VVEGETABLE OIL MILLS, EXCEPT CORN, COTTONSEED, AND SOYBEAN
p1694
sV2075
p1695
VSOYBEAN OIL MILLS
p1696
sV2074
p1697
VCOTTONSEED OIL MILLS
p1698
sV3812
p1699
VSEARCH, DETECTION, NAVIGATION, GUIDANCE, AERONAUTICAL, AND NAUTIC
p1700
sV3961
p1701
VCOSTUME JEWELRY AND COSTUME NOVELTIES, EXCEPT PRECIOUS METAL
p1702
sV9721
p1703
VINTERNATIONAL AFFAIRS
p1704
sV3953
p1705
VMARKING DEVICES
p1706
sV3952
p1707
VLEAD PENCILS, CRAYONS, AND ARTISTS' MATERIALS
p1708
sV3951
p1709
VPENS, MECHANICAL PENCILS, AND PARTS
p1710
sV2391
p1711
VCURTAINS AND DRAPERIES
p1712
sV3955
p1713
VCARBON PAPER AND INKED RIBBONS
p1714
sV3261
p1715
VVITREOUS CHINA PLUMBING FIXTURES AND CHINA AND EARTHENWARE FITTIN
p1716
sV3263
p1717
VFINE EARTHENWARE (WHITEWARE) TABLE AND KITCHEN ARTICLES
p1718
sV3262
p1719
VVITREOUS CHINA TABLE AND KITCHEN ARTICLES
p1720
sV3264
p1721
VPORCELAIN ELECTRICAL SUPPLIES
p1722
sV4111
p1723
VLOCAL AND SUBURBAN TRANSIT
p1724
sV3269
p1725
VPOTTERY PRODUCTS
p1726
sV8351
p1727
VCHILD DAY CARE SERVICES
p1728
sV7363
p1729
VHELP SUPPLY SERVICES
p1730
sV9641
p1731
VREGULATION OF AGRICULTURAL MARKETING AND COMMODITIES
p1732
sV5122
p1733
VDRUGS, DRUG PROPRIETARIES, AND DRUGGISTS' SUNDRIES
p1734
sV4119
p1735
VLOCAL PASSENGER TRANSPORTATION
p1736
sV3466
p1737
VCROWNS AND CLOSURES
p1738
sV3465
p1739
VAUTOMOTIVE STAMPINGS
p1740
sV5088
p1741
VTRANSPORTATION EQUIPMENT AND SUPPLIES, EXCEPT MOTOR VEHICLES
p1742
sV3463
p1743
VNONFERROUS FORGINGS
p1744
sV3462
p1745
VIRON AND STEEL FORGINGS
p1746
sV7215
p1747
VCOIN-OPERATED LAUNDRIES AND DRY CLEANING
p1748
sV5083
p1749
VFARM AND GARDEN MACHINERY AND EQUIPMENT
p1750
sV5082
p1751
VCONSTRUCTION AND MINING (EXCEPT PETROLEUM) MACHINERY AND EQUIPMENT
p1752
sV7371
p1753
VCOMPUTER PROGRAMMING SERVICES
p1754
sV5087
p1755
VSERVICE ESTABLISHMENT EQUIPMENT AND SUPPLIES
p1756
sV7376
p1757
VCOMPUTER FACILITIES MANAGEMENT SERVICES
p1758
sV3469
p1759
VMETAL STAMPINGS
p1760
sV5084
p1761
VINDUSTRIAL MACHINERY AND EQUIPMENT
p1762
sV2671
p1763
VPACKAGING PAPER AND PLASTICS FILM, COATED AND LAMINATED
p1764
sV3364
p1765
VNONFERROUS DIE-CASTINGS, EXCEPT ALUMINUM
p1766
sV2673
p1767
VPLASTICS, FOIL, AND COATED PAPER BAGS
p1768
sV2672
p1769
VCOATED AND LAMINATED PAPER
p1770
sV2675
p1771
VDIE-CUT PAPER AND PAPERBOARD AND CARDBOARD
p1772
sV2674
p1773
VUNCOATED PAPER AND MULTIWALL BAGS
p1774
sV2677
p1775
VENVELOPES
p1776
sV2676
p1777
VSANITARY PAPER PRODUCTS
p1778
sV2679
p1779
VCONVERTED PAPER AND PAPERBOARD PRODUCTS
p1780
sV2678
p1781
VSTATIONERY, TABLETS, AND RELATED PRODUCTS
p1782
sV7542
p1783
VCARWASHES
p1784
sV7216
p1785
VDRY CLEANING PLANTS, EXCEPT RUG CLEANING
p1786
sV7231
p1787
VBEAUTY SHOPS
p1788
sV5012
p1789
VAUTOMOBILES AND OTHER MOTOR VEHICLES
p1790
sV5331
p1791
VVARIETY STORES
p1792
sV7319
p1793
VADVERTISING
p1794
sV5013
p1795
VMOTOR VEHICLE SUPPLIES AND NEW PARTS
p1796
sV7377
p1797
VCOMPUTER RENTAL AND LEASING
p1798
sV8412
p1799
VMUSEUMS AND ART GALLERIES
p1800
sV5984
p1801
VLIQUEFIED PETROLEUM GAS (BOTTLED GAS) DEALERS
p1802
sV8031
p1803
VOFFICES AND CLINICS OF DOCTORS OF OSTEOPATHY
p1804
sV6163
p1805
VLOAN BROKERS
p1806
sV6162
p1807
VMORTGAGE BANKERS AND LOAN CORRESPONDENTS
p1808
sV5094
p1809
VJEWELRY, WATCHES, PRECIOUS STONES, AND PRECIOUS METALS
p1810
sV5946
p1811
VCAMERA AND PHOTOGRAPHIC SUPPLY STORES
p1812
sV5947
p1813
VGIFT, NOVELTY, AND SOUVENIR SHOPS
p1814
sV5944
p1815
VJEWELRY STORES
p1816
sV5945
p1817
VHOBBY, TOY, AND GAME SHOPS
p1818
sV5942
p1819
VBOOK STORES
p1820
sV3211
p1821
VFLAT GLASS
p1822
sV5941
p1823
VSPORTING GOODS STORES AND BICYCLE SHOPS
p1824
sV1731
p1825
VELECTRICAL WORK
p1826
sV5231
p1827
VPAINT, GLASS, AND WALLPAPER STORES
p1828
sV4741
p1829
VRENTAL OF RAILROAD CARS
p1830
sV5948
p1831
VLUGGAGE AND LEATHER GOODS STORES
p1832
sV5949
p1833
VSEWING, NEEDLEWORK, AND PIECE GOODS STORES
p1834
sV2816
p1835
VINORGANIC PIGMENTS
p1836
sV7948
p1837
VRACING, INCLUDING TRACK OPERATION
p1838
sV2813
p1839
VINDUSTRIAL GASES
p1840
sV2812
p1841
VALKALIES AND CHLORINE
p1842
sV0161
p1843
VVEGETABLES AND MELONS
p1844
sV2819
p1845
VINDUSTRIAL INORGANIC CHEMICALS
p1846
sV7641
p1847
VREUPHOLSTERY AND FURNITURE REPAIR
p1848
sV3171
p1849
VWOMEN'S HANDBAGS AND PURSES
p1850
sV3172
p1851
VPERSONAL LEATHER GOODS, EXCEPT WOMEN'S HANDBAGS AND PURSES
p1852
sV2951
p1853
VASPHALT PAVING MIXTURES AND BLOCKS
p1854
sV2952
p1855
VASPHALT FELTS AND COATINGS
p1856
sV2211
p1857
VBROADWOVEN FABRIC MILLS, COTTON
p1858
sV1021
p1859
VCOPPER ORES
p1860
sV4213
p1861
VTRUCKING, EXCEPT LOCAL
p1862
sV7375
p1863
VINFORMATION RETRIEVAL SERVICES
p1864
sV1044
p1865
VSILVER ORES
p1866
sV5421
p1867
VMEAT AND FISH (SEAFOOD) MARKETS, INCLUDING FREEZER PROVISIONERS
p1868
sV6111
p1869
VFEDERAL AND FEDERALLY-SPONSORED CREDIT AGENCIES
p1870
sV5431
p1871
VFRUIT AND VEGETABLE MARKETS
p1872
sV8611
p1873
VBUSINESS ASSOCIATIONS
p1874
sV2353
p1875
VHATS, CAPS, AND MILLINERY
p1876
sV0761
p1877
VFARM LABOR CONTRACTORS AND CREW LEADERS
p1878
sV1741
p1879
VMASONRY, STONE SETTING, AND OTHER STONE WORK
p1880
sV1742
p1881
VPLASTERING, DRYWALL, ACOUSTICAL, AND INSULATION WORK
p1882
sV1743
p1883
VTERRAZZO, TILE, MARBLE, AND MOSAIC WORK
p1884
sV2439
p1885
VSTRUCTURAL WOOD MEMBERS
p1886
sV7291
p1887
VTAX RETURN PREPARATION SERVICES
p1888
sV8071
p1889
VMEDICAL LABORATORIES
p1890
sV2431
p1891
VMILLWORK
p1892
sV8072
p1893
VDENTAL LABORATORIES
p1894
sV2436
p1895
VSOFTWOOD VENEER AND PLYWOOD
p1896
sV2435
p1897
VHARDWOOD VENEER AND PLYWOOD
p1898
sV2434
p1899
VWOOD KITCHEN CABINETS
p1900
sV5521
p1901
VMOTOR VEHICLE DEALERS (USED ONLY)
p1902
sV8661
p1903
VRELIGIOUS ORGANIZATIONS
p1904
sV5632
p1905
VWOMEN'S ACCESSORY AND SPECIALTY STORES
p1906
sV5641
p1907
VCHILDREN'S AND INFANTS' WEAR STORES
p1908
sV7832
p1909
VMOTION PICTURE THEATERS, EXCEPT DRIVE-IN
p1910
sV7833
p1911
VDRIVE-IN MOTION PICTURE THEATERS
p1912
sV3732
p1913
VBOAT BUILDING AND REPAIRING
p1914
sV3731
p1915
VSHIP BUILDING AND REPAIRING
p1916
sV4923
p1917
VNATURAL GAS TRANSMISSION AND DISTRIBUTION
p1918
sV4922
p1919
VNATURAL GAS TRANSMISSION
p1920
sV2992
p1921
VLUBRICATING OILS AND GREASES
p1922
sV3678
p1923
VELECTRONIC CONNECTORS
p1924
sV2131
p1925
VCHEWING AND SMOKING TOBACCO AND SNUFF
p1926
sV4512
p1927
VAIR TRANSPORTATION, SCHEDULED
p1928
sV4513
p1929
VAIR COURIER SERVICES
p1930
sV8069
p1931
VSPECIALTY HOSPITALS, EXCEPT PSYCHIATRIC
p1932
sV1446
p1933
VINDUSTRIAL SAND
p1934
sV1442
p1935
VCONSTRUCTION SAND AND GRAVEL
p1936
sV7299
p1937
VMISCELLANEOUS PERSONAL SERVICES
p1938
sV6021
p1939
VNATIONAL COMMERCIAL BANKS
p1940
sV4481
p1941
VDEEP SEA TRANSPORTATION OF PASSENGERS, EXCEPT BY FERRY
p1942
sV6082
p1943
VFOREIGN TRADE AND INTERNATIONAL BANKING INSTITUTIONS
p1944
sV5932
p1945
VUSED MERCHANDISE STORES
p1946
sV5162
p1947
VPLASTICS MATERIALS AND BASIC FORMS AND SHAPES
p1948
sV8399
p1949
VSOCIAL SERVICES
p1950
sV2721
p1951
VPERIODICALS: PUBLISHING, OR PUBLISHING AND PRINTING
p1952
sV5169
p1953
VCHEMICALS AND ALLIED PRODUCTS
p1954
sV5735
p1955
VRECORD AND PRERECORDED TAPE STORES
p1956
sV5734
p1957
VCOMPUTER AND COMPUTER SOFTWARE STORES
p1958
sV5736
p1959
VMUSICAL INSTRUMENT STORES
p1960
sV5731
p1961
VRADIO, TELEVISION, AND CONSUMER ELECTRONICS STORES
p1962
sV7941
p1963
VPROFESSIONAL SPORTS CLUBS AND PROMOTERS
p1964
sV5049
p1965
VPROFESSIONAL EQUIPMENT AND SUPPLIES
p1966
sV5048
p1967
VOPHTHALMIC GOODS
p1968
sV5047
p1969
VMEDICAL, DENTAL, AND HOSPITAL EQUIPMENT AND SUPPLIES
p1970
sV5046
p1971
VCOMMERCIAL EQUIPMENT
p1972
sV5045
p1973
VCOMPUTERS AND COMPUTER PERIPHERAL EQUIPMENT AND SOFTWARE
p1974
sV5044
p1975
VOFFICE EQUIPMENT
p1976
sV5043
p1977
VPHOTOGRAPHIC EQUIPMENT AND SUPPLIES
p1978
sV8092
p1979
VKIDNEY DIALYSIS CENTERS
p1980
sV3429
p1981
VHARDWARE
p1982
sV8999
p1983
VSERVICES
p1984
sV3499
p1985
VFABRICATED METAL PRODUCTS
p1986
sV6541
p1987
VTITLE ABSTRACT OFFICES
p1988
sV3423
p1989
VHAND AND EDGE TOOLS, EXCEPT MACHINE TOOLS AND HANDSAWS
p1990
sV6231
p1991
VSECURITY AND COMMODITY EXCHANGES
p1992
sV3421
p1993
VCUTLERY
p1994
sV3425
p1995
VSAW BLADES AND HANDSAWS
p1996
sV7829
p1997
VSERVICES ALLIED TO MOTION PICTURE DISTRIBUTION
p1998
sV9511
p1999
VAIR AND WATER RESOURCE AND SOLID WASTE MANAGEMENT
p2000
sV6331
p2001
VFIRE, MARINE, AND CASUALTY INSURANCE
p2002
sV9512
p2003
VLAND, MINERAL, WILDLIFE, AND FOREST CONSERVATION
p2004
sV5551
p2005
VBOAT DEALERS
p2006
sV4581
p2007
VAIRPORTS, FLYING FIELDS, AND AIRPORT TERMINAL SERVICES
p2008
sV3199
p2009
VLEATHER GOODS
p2010
s.