(dp0
V8300
p1
VSERVICES-SOCIAL SERVICES
p2
sV7812
p3
VSERVICES-MOTION PICTURE & VIDEO TAPE PRODUCTION
p4
sV3555
p5
VPRINTING TRADES MACHINERY & EQUIPMENT
p6
sV8093
p7
VSERVICES-SPECIALTY OUTPATIENT FACILITIES, NEC
p8
sV3550
p9
VSPECIAL INDUSTRY MACHINERY (NO METALWORKING MACHINERY)
p10
sV3250
p11
VSTRUCTURAL CLAY PRODUCTS
p12
sV7841
p13
VSERVICES-VIDEO TAPE RENTAL
p14
sV3559
p15
VSPECIAL INDUSTRY MACHINERY, NEC
p16
sV3851
p17
VOPHTHALMIC GOODS
p18
sV8900
p19
VSERVICES-SERVICES, NEC
p20
sV3990
p21
VMISCELLANEOUS MANUFACTURING INDUSTRIES
p22
sV2911
p23
VPETROLEUM REFINING
p24
sV2851
p25
VPAINTS, VARNISHES, LACQUERS, ENAMELS & ALLIED PRODS
p26
sV6099
p27
VFUNCTIONS RELATED TO DEPOSITORY BANKING, NEC
p28
sV3330
p29
VPRIMARY SMELTING & REFINING OF NONFERROUS METALS
p30
sV3334
p31
VPRIMARY PRODUCTION OF ALUMINUM
p32
sV6159
p33
VMISCELLANEOUS BUSINESS CREDIT INSTITUTION
p34
sV1700
p35
VCONSTRUCTION - SPECIAL TRADE CONTRACTORS
p36
sV6794
p37
VPATENT OWNERS & LESSORS
p38
sV4731
p39
VARRANGEMENT OF TRANSPORTATION OF FREIGHT & CARGO
p40
sV6792
p41
VOIL ROYALTY TRADERS
p42
sV6798
p43
VREAL ESTATE INVESTMENT TRUSTS
p44
sV6799
p45
VINVESTORS, NEC
p46
sV5912
p47
VRETAIL-DRUG STORES AND PROPRIETARY STORES
p48
sV8600
p49
VSERVICES-MEMBERSHIP ORGANIZATIONS
p50
sV4522
p51
VAIR TRANSPORTATION, NONSCHEDULED
p52
sV3140
p53
VFOOTWEAR, (NO RUBBER)
p54
sV3678
p55
VELECTRONIC CONNECTORS
p56
sV3679
p57
VELECTRONIC COMPONENTS, NEC
p58
sV3672
p59
VPRINTED CIRCUIT BOARDS
p60
sV3670
p61
VELECTRONIC COMPONENTS & ACCESSORIES
p62
sV2820
p63
VPLASTIC MATERIAL, SYNTH RESIN/RUBBER, CELLULOSE (NO GLASS)
p64
sV2821
p65
VPLASTIC MATERIALS, SYNTH RESINS & NONVULCAN ELASTOMERS
p66
sV3674
p67
VSEMICONDUCTORS & RELATED DEVICES
p68
sV2540
p69
VPARTITIONS, SHELVG, LOCKERS, & OFFICE & STORE FIXTURES
p70
sV5411
p71
VRETAIL-GROCERY STORES
p72
sV5412
p73
VRETAIL-CONVENIENCE STORES
p74
sV3021
p75
VRUBBER & PLASTICS FOOTWEAR
p76
sV5500
p77
VRETAIL-AUTO DEALERS & GASOLINE STATIONS
p78
sV0200
p79
VAGRICULTURAL PROD-LIVESTOCK & ANIMAL SPECIALTIES
p80
sV8734
p81
VSERVICES-TESTING LABORATORIES
p82
sV1400
p83
VMINING & QUARRYING OF NONMETALLIC MINERALS (NO FUELS)
p84
sV8731
p85
VSERVICES-COMMERCIAL PHYSICAL & BIOLOGICAL RESEARCH
p86
sV3580
p87
VREFRIGERATION & SERVICE INDUSTRY MACHINERY
p88
sV5000
p89
VWHOLESALE-DURABLE GOODS
p90
sV4210
p91
VTRUCKING & COURIER SERVICES (NO AIR)
p92
sV4213
p93
VTRUCKING (NO LOCAL)
p94
sV2761
p95
VMANIFOLD BUSINESS FORMS
p96
sV0100
p97
VAGRICULTURAL PRODUCTION-CROPS
p98
sV7900
p99
VSERVICES-AMUSEMENT & RECREATION SERVICES
p100
sV4813
p101
VTELEPHONE COMMUNICATIONS (NO RADIOTELEPHONE)
p102
sV4812
p103
VRADIOTELEPHONE COMMUNICATIONS
p104
sV2040
p105
VGRAIN MILL PRODUCTS
p106
sV6500
p107
VREAL ESTATE
p108
sV6199
p109
VFINANCE SERVICES
p110
sV1531
p111
VOPERATIVE BUILDERS
p112
sV4953
p113
VREFUSE SYSTEMS
p114
sV4950
p115
VSANITARY SERVICES
p116
sV4955
p117
VHAZARDOUS WASTE MANAGEMENT
p118
sV2611
p119
VPULP MILLS
p120
sV4100
p121
VLOCAL & SUBURBAN TRANSIT & INTERURBAN HWY PASSENGER TRANS
p122
sV7340
p123
VSERVICES-TO DWELLINGS & OTHER BUILDINGS
p124
sV3290
p125
VABRASIVE, ASBESTOS & MISC NONMETALLIC MINERAL PRODS
p126
sV5130
p127
VWHOLESALE-APPAREL, PIECE GOODS & NOTIONS
p128
sV3452
p129
VBOLTS, NUTS, SCREWS, RIVETS & WASHERS
p130
sV3451
p131
VSCREW MACHINE PRODUCTS
p132
sV3510
p133
VENGINES & TURBINES
p134
sV5700
p135
VRETAIL-HOME FURNITURE, FURNISHINGS & EQUIPMENT STORES
p136
sV6200
p137
VSECURITY & COMMODITY BROKERS, DEALERS, EXCHANGES & SERVICES
p138
sV7510
p139
VSERVICES-AUTO RENTAL & LEASING (NO DRIVERS)
p140
sV7000
p141
VHOTELS, ROOMING HOUSES, CAMPS & OTHER LODGING PLACES
p142
sV1623
p143
VWATER, SEWER, PIPELINE, COMM & POWER LINE CONSTRUCTION
p144
sV5180
p145
VWHOLESALE-BEER, WINE & DISTILLED ALCOHOLIC BEVERAGES
p146
sV0800
p147
VFORESTRY
p148
sV3960
p149
VCOSTUME JEWELRY & NOVELTIES
p150
sV7372
p151
VSERVICES-PREPACKAGED SOFTWARE
p152
sV5810
p153
VRETAIL-EATING & DRINKING PLACES
p154
sV5812
p155
VRETAIL-EATING PLACES
p156
sV2860
p157
VINDUSTRIAL ORGANIC CHEMICALS
p158
sV7370
p159
VSERVICES-COMPUTER PROGRAMMING, DATA PROCESSING, ETC.
p160
sV3634
p161
VELECTRIC HOUSEWARES & FANS
p162
sV3630
p163
VHOUSEHOLD APPLIANCES
p164
sV3060
p165
VFABRICATED RUBBER PRODUCTS, NEC
p166
sV4610
p167
VPIPE LINES (NO NATURAL GAS)
p168
sV7374
p169
VSERVICES-COMPUTER PROCESSING & DATA PREPARATION
p170
sV5063
p171
VWHOLESALE-ELECTRICAL APPARATUS & EQUIPMENT, WIRING SUPPLIES
p172
sV3341
p173
VSECONDARY SMELTING & REFINING OF NONFERROUS METALS
p174
sV2221
p175
VBROADWOVEN FABRIC MILLS, MAN MADE FIBER & SILK
p176
sV5531
p177
VRETAIL-AUTO & HOME SUPPLY STORES
p178
sV7822
p179
VSERVICES-MOTION PICTURE & VIDEO TAPE DISTRIBUTION
p180
sV2340
p181
VWOMEN'S, MISSES', CHILDREN'S & INFANTS' UNDERGARMENTS
p182
sV2082
p183
VMALT BEVERAGES
p184
sV2080
p185
VBEVERAGES
p186
sV2086
p187
VBOTTLED & CANNED SOFT DRINKS & CARBONATED WATERS
p188
sV4911
p189
VELECTRIC SERVICES
p190
sV6153
p191
VSHORT-TERM BUSINESS CREDIT INSTITUTIONS
p192
sV2531
p193
VPUBLIC BLDG & RELATED FURNITURE
p194
sV6036
p195
VSAVINGS INSTITUTIONS, NOT FEDERALLY CHARTERED
p196
sV6035
p197
VSAVINGS INSTITUTION, FEDERALLY CHARTERED
p198
sV5172
p199
VWHOLESALE-PETROLEUM & PETROLEUM PRODUCTS (NO BULK STATIONS)
p200
sV5171
p201
VWHOLESALE-PETROLEUM BULK STATIONS & TERMINALS
p202
sV2711
p203
VNEWSPAPERS: PUBLISHING OR PUBLISHING & PRINTING
p204
sV2650
p205
VPAPERBOARD CONTAINERS & BOXES
p206
sV7389
p207
VSERVICES-BUSINESS SERVICES, NEC
p208
sV3412
p209
VMETAL SHIPPING BARRELS, DRUMS, KEGS & PAILS
p210
sV3411
p211
VMETAL CANS
p212
sV5072
p213
VWHOLESALE-HARDWARE
p214
sV5070
p215
VWHOLESALE-HARDWARE & PLUMBING & HEATING EQUIPMENT & SUPPLIES
p216
sV7381
p217
VSERVICES-DETECTIVE, GUARD & ARMORED CAR SERVICES
p218
sV4220
p219
VPUBLIC WAREHOUSING & STORAGE
p220
sV7384
p221
VSERVICES-PHOTOFINISHING LABORATORIES
p222
sV7385
p223
VSERVICES-TELEPHONE INTERCONNECT SYSTEMS
p224
sV3790
p225
VMISCELLANEOUS TRANSPORTATION EQUIPMENT
p226
sV5621
p227
VRETAIL-WOMEN'S CLOTHING STORES
p228
sV6324
p229
VHOSPITAL & MEDICAL SERVICE PLANS
p230
sV2400
p231
VLUMBER & WOOD PRODUCTS (NO FURNITURE)
p232
sV2015
p233
VPOULTRY SLAUGHTERING AND PROCESSING
p234
sV2011
p235
VMEAT PACKING PLANTS
p236
sV2013
p237
VSAUSAGES & OTHER PREPARED MEAT PRODUCTS
p238
sV3931
p239
VMUSICAL INSTRUMENTS
p240
sV6795
p241
VMINERAL ROYALTY TRADERS
p242
sV5990
p243
VRETAIL-RETAIL STORES, NEC
p244
sV2452
p245
VPREFABRICATED WOOD BLDGS & COMPONENTS
p246
sV3562
p247
VBALL & ROLLER BEARINGS
p248
sV3560
p249
VGENERAL INDUSTRIAL MACHINERY & EQUIPMENT
p250
sV3561
p251
VPUMPS & PUMPING EQUIPMENT
p252
sV3567
p253
VINDUSTRIAL PROCESS FURNACES & OVENS
p254
sV3564
p255
VINDUSTRIAL & COMMERCIAL FANS & BLOWERS & AIR PURIFYING EQUIP
p256
sV8082
p257
VSERVICES-HOME HEALTH CARE SERVICES
p258
sV3241
p259
VCEMENT, HYDRAULIC
p260
sV3569
p261
VGENERAL INDUSTRIAL MACHINERY & EQUIPMENT, NEC
p262
sV7311
p263
VSERVICES-ADVERTISING AGENCIES
p264
sV7310
p265
VSERVICES-ADVERTISING
p266
sV3841
p267
VSURGICAL & MEDICAL INSTRUMENTS & APPARATUS
p268
sV3843
p269
VDENTAL EQUIPMENT & SUPPLIES
p270
sV3842
p271
VORTHOPEDIC, PROSTHETIC & SURGICAL APPLIANCES & SUPPLIES
p272
sV3845
p273
VELECTROMEDICAL & ELECTROTHERAPEUTIC APPARATUS
p274
sV3844
p275
VX-RAY APPARATUS & TUBES & RELATED IRRADIATION APPARATUS
p276
sV6141
p277
VPERSONAL CREDIT INSTITUTIONS
p278
sV2300
p279
VAPPAREL & OTHER FINISHED PRODS OF FABRICS & SIMILAR MATL
p280
sV5311
p281
VRETAIL-DEPARTMENT STORES
p282
sV5960
p283
VRETAIL-NONSTORE RETAILERS
p284
sV5961
p285
VRETAIL-CATALOG & MAIL-ORDER HOUSES
p286
sV3661
p287
VTELEPHONE & TELEGRAPH APPARATUS
p288
sV3663
p289
VRADIO & TV BROADCASTING & COMMUNICATIONS EQUIPMENT
p290
sV3669
p291
VCOMMUNICATIONS EQUIPMENT, NEC
p292
sV3743
p293
VRAILROAD EQUIPMENT
p294
sV8200
p295
VSERVICES-EDUCATIONAL SERVICES
p296
sV2836
p297
VBIOLOGICAL PRODUCTS, (NO DIAGNOSTIC SUBSTANCES)
p298
sV2835
p299
VIN VITRO & IN VIVO DIAGNOSTIC SUBSTANCES
p300
sV2834
p301
VPHARMACEUTICAL PREPARATIONS
p302
sV2833
p303
VMEDICINAL CHEMICALS & BOTANICAL PRODUCTS
p304
sV3390
p305
VMISCELLANEOUS PRIMARY METAL PRODUCTS
p306
sV2273
p307
VCARPETS & RUGS
p308
sV5400
p309
VRETAIL-FOOD STORES
p310
sV3011
p311
VTIRES & INNER TUBES
p312
sV7829
p313
VSERVICES-ALLIED TO MOTION PICTURE DISTRIBUTION
p314
sV1000
p315
VMETAL MINING
p316
sV8051
p317
VSERVICES-SKILLED NURSING CARE FACILITIES
p318
sV3590
p319
VMISC INDUSTRIAL & COMMERCIAL MACHINERY & EQUIPMENT
p320
sV2590
p321
VMISCELLANEOUS FURNITURE & FIXTURES
p322
sV1221
p323
VBITUMINOUS COAL & LIGNITE SURFACE MINING
p324
sV1220
p325
VBITUMINOUS COAL & LIGNITE MINING
p326
sV2451
p327
VMOBILE HOMES
p328
sV5030
p329
VWHOLESALE-LUMBER & OTHER CONSTRUCTION MATERIALS
p330
sV5031
p331
VWHOLESALE-LUMBER, PLYWOOD, MILLWORK & WOOD PANELS
p332
sV5661
p333
VRETAIL-SHOE STORES
p334
sV6532
p335
VREAL ESTATE DEALERS (FOR THEIR OWN ACCOUNT)
p336
sV6531
p337
VREAL ESTATE AGENTS & MANAGERS (FOR OTHERS)
p338
sV8111
p339
VSERVICES-LEGAL SERVICES
p340
sV2050
p341
VBAKERY PRODUCTS
p342
sV2052
p343
VCOOKIES & CRACKERS
p344
sV4941
p345
VWATER SUPPLY
p346
sV3690
p347
VMISCELLANEOUS ELECTRICAL MACHINERY, EQUIPMENT & SUPPLIES
p348
sV4822
p349
VTELEGRAPH & OTHER MESSAGE COMMUNICATIONS
p350
sV3695
p351
VMAGNETIC & OPTICAL RECORDING MEDIA
p352
sV6282
p353
VINVESTMENT ADVICE
p354
sV3089
p355
VPLASTICS PRODUCTS, NEC
p356
sV2111
p357
VCIGARETTES
p358
sV6361
p359
VTITLE INSURANCE
p360
sV3086
p361
VPLASTICS FOAM PRODUCTS
p362
sV3081
p363
VUNSUPPORTED PLASTICS FILM & SHEET
p364
sV3080
p365
VMISCELLANEOUS PLASTICS PRODUCTS
p366
sV2621
p367
VPAPER MILLS
p368
sV3873
p369
VWATCHES, CLOCKS, CLOCKWORK OPERATED DEVICES/PARTS
p370
sV7350
p371
VSERVICES-MISCELLANEOUS EQUIPMENT RENTAL & LEASING
p372
sV3524
p373
VLAWN & GARDEN TRACTORS & HOME LAWN & GARDENS EQUIP
p374
sV3523
p375
VFARM MACHINERY & EQUIPMENT
p376
sV7359
p377
VSERVICES-EQUIPMENT RENTAL & LEASING, NEC
p378
sV3281
p379
VCUT STONE & STONE PRODUCTS
p380
sV3448
p381
VPREFABRICATED METAL BUILDINGS & COMPONENTS
p382
sV3444
p383
VSHEET METAL WORK
p384
sV3440
p385
VFABRICATED STRUCTURAL METAL PRODUCTS
p386
sV3443
p387
VFABRICATED PLATE WORK (BOILER SHOPS)
p388
sV3442
p389
VMETAL DOORS, SASH, FRAMES, MOLDINGS & TRIM
p390
sV2024
p391
VICE CREAM & FROZEN DESSERTS
p392
sV2020
p393
VDAIRY PRODUCTS
p394
sV2750
p395
VCOMMERCIAL PRINTING
p396
sV8880
p397
VAMERICAN DEPOSITARY RECEIPTS
p398
sV5211
p399
VRETAIL-LUMBER & OTHER BUILDING MATERIALS DEALERS
p400
sV3231
p401
VGLASS PRODUCTS, MADE OF PURCHASED GLASS
p402
sV7320
p403
VSERVICES-CONSUMER CREDIT REPORTING, COLLECTION AGENCIES
p404
sV5190
p405
VWHOLESALE-MISCELLANEOUS NONDURABLE GOODS
p406
sV3677
p407
VELECTRONIC COILS, TRANSFORMERS & OTHER INDUCTORS
p408
sV2870
p409
VAGRICULTURAL CHEMICALS
p410
sV3621
p411
VMOTORS & GENERATORS
p412
sV3620
p413
VELECTRICAL INDUSTRIAL APPARATUS
p414
sV3357
p415
VDRAWING & INSULATING OF NONFERROUS WIRE
p416
sV3350
p417
VROLLING DRAWING & EXTRUDING OF NONFERROUS METALS
p418
sV3579
p419
VOFFICE MACHINES, NEC
p420
sV3050
p421
VGASKETS, PACKG & SEALG DEVICES & RUBBER & PLASTICS HOSE
p422
sV2330
p423
VWOMEN'S, MISSES', AND JUNIORS OUTERWEAR
p424
sV1040
p425
VGOLD AND SILVER ORES
p426
sV5090
p427
VWHOLESALE-MISC DURABLE GOODS
p428
sV0700
p429
VAGRICULTURAL SERVICES
p430
sV3715
p431
VTRUCK TRAILERS
p432
sV3714
p433
VMOTOR VEHICLE PARTS & ACCESSORIES
p434
sV3716
p435
VMOTOR HOMES
p436
sV3711
p437
VMOTOR VEHICLES & PASSENGER CAR BODIES
p438
sV3713
p439
VTRUCK & BUS BODIES
p440
sV3571
p441
VELECTRONIC COMPUTERS
p442
sV3490
p443
VMISCELLANEOUS FABRICATED METAL PRODUCTS
p444
sV7819
p445
VSERVICES-ALLIED TO MOTION PICTURE PRODUCTION
p446
sV2090
p447
VMISCELLANEOUS FOOD PREPARATIONS & KINDRED PRODUCTS
p448
sV2092
p449
VPREPARED FRESH OR FROZEN FISH & SEAFOODS
p450
sV3651
p451
VHOUSEHOLD AUDIO & VIDEO EQUIPMENT
p452
sV3652
p453
VPHONOGRAPH RECORDS & PRERECORDED AUDIO TAPES & DISKS
p454
sV2520
p455
VOFFICE FURNITURE
p456
sV1540
p457
VGENERAL BLDG CONTRACTORS - NONRESIDENTIAL BLDGS
p458
sV2522
p459
VOFFICE FURNITURE (NO WOOD)
p460
sV4900
p461
VELECTRIC, GAS & SANITARY SERVICES
p462
sV8711
p463
VSERVICES-ENGINEERING SERVICES
p464
sV7200
p465
VSERVICES-PERSONAL SERVICES
p466
sV5065
p467
VWHOLESALE-ELECTRONIC PARTS & EQUIPMENT, NEC
p468
sV5064
p469
VWHOLESALE-ELECTRICAL APPLIANCES, TV & RADIO SETS
p470
sV1311
p471
VCRUDE PETROLEUM & NATURAL GAS
p472
sV5140
p473
VWHOLESALE-GROCERIES & RELATED PRODUCTS
p474
sV5141
p475
VWHOLESALE-GROCERIES, GENERAL LINE
p476
sV4231
p477
VTERMINAL MAINTENANCE FACILITIES FOR MOTOR FREIGHT TRANSPORT
p478
sV4400
p479
VWATER TRANSPORTATION
p480
sV6311
p481
VLIFE INSURANCE
p482
sV1389
p483
VOIL & GAS FIELD SERVICES, NEC
p484
sV2060
p485
VSUGAR & CONFECTIONERY PRODUCTS
p486
sV2790
p487
VSERVICE INDUSTRIES FOR THE PRINTING TRADE
p488
sV1381
p489
VDRILLING OIL & GAS WELLS
p490
sV1382
p491
VOIL & GAS FIELD EXPLORATION SERVICES
p492
sV3827
p493
VOPTICAL INSTRUMENTS & LENSES
p494
sV3949
p495
VSPORTING & ATHLETIC GOODS, NEC
p496
sV3825
p497
VINSTRUMENTS FOR MEAS & TESTING OF ELECTRICITY & ELEC SIGNALS
p498
sV3824
p499
VTOTALIZING FLUID METERS & COUNTING DEVICES
p500
sV3823
p501
VINDUSTRIAL INSTRUMENTS FOR MEASUREMENT, DISPLAY, AND CONTROL
p502
sV3822
p503
VAUTO CONTROLS FOR REGULATING RESIDENTIAL & COMML ENVIRONMENTS
p504
sV3821
p505
VLABORATORY APPARATUS & FURNITURE
p506
sV3942
p507
VDOLLS & STUFFED TOYS
p508
sV3944
p509
VGAMES, TOYS & CHILDREN'S VEHICLES (NO DOLLS & BICYCLES)
p510
sV3829
p511
VMEASURING & CONTROLLING DEVICES, NEC
p512
sV5712
p513
VRETAIL-FURNITURE STORES
p514
sV3272
p515
VCONCRETE PRODUCTS, EXCEPT BLOCK & BRICK
p516
sV3270
p517
VCONCRETE, GYPSUM & PLASTER PRODUCTS
p518
sV7380
p519
VSERVICES-MISCELLANEOUS BUSINESS SERVICES
p520
sV3585
p521
VAIR-COND & WARM AIR HEATG EQUIP & COMM & INDL REFRIG EQUIP
p522
sV5099
p523
VWHOLESALE-DURABLE GOODS, NEC
p524
sV3470
p525
VCOATING, ENGRAVING & ALLIED SERVICES
p526
sV3578
p527
VCALCULATING & ACCOUNTING MACHINES (NO ELECTRONIC COMPUTERS)
p528
sV3575
p529
VCOMPUTER TERMINALS
p530
sV7361
p531
VSERVICES-EMPLOYMENT AGENCIES
p532
sV3577
p533
VCOMPUTER PERIPHERAL EQUIPMENT, NEC
p534
sV3576
p535
VCOMPUTER COMMUNICATIONS EQUIPMENT
p536
sV5094
p537
VWHOLESALE-JEWELRY, WATCHES, PRECIOUS STONES & METALS
p538
sV3570
p539
VCOMPUTER & OFFICE EQUIPMENT
p540
sV3572
p541
VCOMPUTER STORAGE DEVICES
p542
sV8011
p543
VSERVICES-OFFICES & CLINICS OF DOCTORS OF MEDICINE
p544
sV6211
p545
VSECURITY BROKERS, DEALERS & FLOTATION COMPANIES
p546
sV3310
p547
VSTEEL WORKS, BLAST FURNACES & ROLLING & FINISHING MILLS
p548
sV3312
p549
VSTEEL WORKS, BLAST FURNACES & ROLLING MILLS (COKE OVENS)
p550
sV6172
p551
VFINANCE LESSORS
p552
sV3317
p553
VSTEEL PIPE & TUBES
p554
sV6770
p555
VBLANK CHECKS
p556
sV3612
p557
VPOWER, DISTRIBUTION & SPECIALTY TRANSFORMERS
p558
sV3613
p559
VSWITCHGEAR & SWITCHBOARD APPARATUS
p560
sV3751
p561
VMOTORCYCLES, BICYCLES & PARTS
p562
sV8744
p563
VSERVICES-FACILITIES SUPPORT MANAGEMENT SERVICES
p564
sV8742
p565
VSERVICES-MANAGEMENT CONSULTING SERVICES
p566
sV8741
p567
VSERVICES-MANAGEMENT SERVICES
p568
sV2800
p569
VCHEMICALS & ALLIED PRODUCTS
p570
sV2200
p571
VTEXTILE MILL PRODUCTS
p572
sV3360
p573
VNONFERROUS FOUNDRIES (CASTINGS)
p574
sV6321
p575
VACCIDENT & HEALTH INSURANCE
p576
sV5020
p577
VWHOLESALE-FURNITURE & HOME FURNISHINGS
p578
sV8062
p579
VSERVICES-GENERAL MEDICAL & SURGICAL HOSPITALS, NEC
p580
sV8060
p581
VSERVICES-HOSPITALS
p582
sV3728
p583
VAIRCRAFT PARTS & AUXILIARY EQUIPMENT, NEC
p584
sV3724
p585
VAIRCRAFT ENGINES & ENGINE PARTS
p586
sV3720
p587
VAIRCRAFT & PARTS
p588
sV3721
p589
VAIRCRAFT
p590
sV5651
p591
VRETAIL-FAMILY CLOTHING STORES
p592
sV4931
p593
VELECTRIC & OTHER SERVICES COMBINED
p594
sV4932
p595
VGAS & OTHER SERVICES COMBINED
p596
sV6351
p597
VSURETY INSURANCE
p598
sV4833
p599
VTELEVISION BROADCASTING STATIONS
p600
sV4832
p601
VRADIO BROADCASTING STATIONS
p602
sV2891
p603
VADHESIVES & SEALANTS
p604
sV2890
p605
VMISCELLANEOUS CHEMICAL PRODUCTS
p606
sV7990
p607
VSERVICES-MISCELLANEOUS AMUSEMENT & RECREATION
p608
sV7997
p609
VSERVICES-MEMBERSHIP SPORTS & RECREATION CLUBS
p610
sV7363
p611
VSERVICES-HELP SUPPLY SERVICES
p612
sV2100
p613
VTOBACCO PRODUCTS
p614
sV2510
p615
VHOUSEHOLD FURNITURE
p616
sV2511
p617
VWOOD HOUSEHOLD FURNITURE, (NO UPHOLSTERED)
p618
sV5110
p619
VWHOLESALE-PAPER & PAPER PRODUCTS
p620
sV2732
p621
VBOOK PRINTING
p622
sV3861
p623
VPHOTOGRAPHIC EQUIPMENT & SUPPLIES
p624
sV2631
p625
VPAPERBOARD MILLS
p626
sV3531
p627
VCONSTRUCTION MACHINERY & EQUIP
p628
sV3530
p629
VCONSTRUCTION, MINING & MATERIALS HANDLING MACHINERY & EQUIP
p630
sV3533
p631
VOIL & GAS FIELD MACHINERY & EQUIPMENT
p632
sV3532
p633
VMINING MACHINERY & EQUIP (NO OIL & GAS FIELD MACH & EQUIP)
p634
sV3537
p635
VINDUSTRIAL TRUCKS, TRACTORS, TRAILORS & STACKERS
p636
sV5050
p637
VWHOLESALE-METALS & MINERALS (NO PETROLEUM)
p638
sV5051
p639
VWHOLESALE-METALS SERVICE CENTERS & OFFICES
p640
sV6552
p641
VLAND SUBDIVIDERS & DEVELOPERS (NO CEMETERIES)
p642
sV3430
p643
VHEATING EQUIP, EXCEPT ELEC & WARM AIR; & PLUMBING FIXTURES
p644
sV3433
p645
VHEATING EQUIPMENT, EXCEPT ELECTRIC & WARM AIR FURNACES
p646
sV6411
p647
VINSURANCE AGENTS, BROKERS & SERVICE
p648
sV2741
p649
VMISCELLANEOUS PUBLISHING
p650
sV6221
p651
VCOMMODITY CONTRACTS BROKERS & DEALERS
p652
sV2033
p653
VCANNED, FRUITS, VEG, PRESERVES, JAMS & JELLIES
p654
sV2030
p655
VCANNED, FROZEN & PRESERVED FRUIT, VEG & FOOD SPECIALTIES
p656
sV4841
p657
VCABLE & OTHER PAY TELEVISION SERVICES
p658
sV3911
p659
VJEWELRY, PRECIOUS METAL
p660
sV3910
p661
VJEWELRY, SILVERWARE & PLATED WARE
p662
sV5200
p663
VRETAIL-BUILDING MATERIALS, HARDWARE, GARDEN SUPPLY
p664
sV3540
p665
VMETALWORKG MACHINERY & EQUIPMENT
p666
sV3541
p667
VMACHINE TOOLS, METAL CUTTING TYPES
p668
sV7331
p669
VSERVICES-DIRECT MAIL ADVERTISING SERVICES
p670
sV7330
p671
VSERVICES-MAILING, REPRODUCTION, COMMERCIAL ART & PHOTOGRAPHY
p672
sV4013
p673
VRAILROAD SWITCHING & TERMINAL ESTABLISHMENTS
p674
sV1600
p675
VHEAVY CONSTRUCTION OTHER THAN BLDG CONST - CONTRACTORS
p676
sV4011
p677
VRAILROADS, LINE-HAUL OPERATING
p678
sV3221
p679
VGLASS CONTAINERS
p680
sV3220
p681
VGLASS & GLASSWARE, PRESSED OR BLOWN
p682
sV7500
p683
VSERVICES-AUTOMOTIVE REPAIR, SERVICES & PARKING
p684
sV2844
p685
VPERFUMES, COSMETICS & OTHER TOILET PREPARATIONS
p686
sV2842
p687
VSPECIALTY CLEANING, POLISHING AND SANITATION PREPARATIONS
p688
sV2840
p689
VSOAP, DETERGENTS, CLEANG PREPARATIONS, PERFUMES, COSMETICS
p690
sV3320
p691
VIRON & STEEL FOUNDRIES
p692
sV2320
p693
VMEN'S & BOYS' FURNISHINGS, WORK CLOTHING, & ALLIED GARMENTS
p694
sV5271
p695
VRETAIL-MOBILE HOME DEALERS
p696
sV4700
p697
VTRANSPORTATION SERVICES
p698
sV5900
p699
VRETAIL-MISCELLANEOUS RETAIL
p700
sV3760
p701
VGUIDED MISSILES & SPACE VEHICLES & PARTS
p702
sV1090
p703
VMISCELLANEOUS METAL ORES
p704
sV3826
p705
VLABORATORY ANALYTICAL INSTRUMENTS
p706
sV3480
p707
VORDNANCE & ACCESSORIES, (NO VEHICLES/GUIDED MISSILES)
p708
sV3640
p709
VELECTRIC LIGHTING & WIRING EQUIPMENT
p710
sV6399
p711
VINSURANCE CARRIERS, NEC
p712
sV2990
p713
VMISCELLANEOUS PRODUCTS OF PETROLEUM & COAL
p714
sV7600
p715
VSERVICES-MISCELLANEOUS REPAIR SERVICES
p716
sV8700
p717
VSERVICES-ENGINEERING, ACCOUNTING, RESEARCH, MANAGEMENT
p718
sV2390
p719
VMISCELLANEOUS FABRICATED TEXTILE PRODUCTS
p720
sV2253
p721
VKNIT OUTERWEAR MILLS
p722
sV2250
p723
VKNITTING MILLS
p724
sV5010
p725
VWHOLESALE-MOTOR VEHICLES & MOTOR VEHICLE PARTS & SUPPLIES
p726
sV4899
p727
VCOMMUNICATIONS SERVICES, NEC
p728
sV5013
p729
VWHOLESALE-MOTOR VEHICLE SUPPLIES & NEW PARTS
p730
sV2771
p731
VGREETING CARDS
p732
sV5600
p733
VRETAIL-APPAREL & ACCESSORY STORES
p734
sV5399
p735
VRETAIL-MISC GENERAL MERCHANDISE STORES
p736
sV9995
p737
VNON-OPERATING ESTABLISHMENTS
p738
sV6519
p739
VLESSORS OF REAL PROPERTY, NEC
p740
sV2780
p741
VBLANKBOOKS, LOOSELEAF BINDERS & BOOKBINDING & RELATED WORK
p742
sV6510
p743
VREAL ESTATE OPERATORS (NO DEVELOPERS) & LESSORS
p744
sV6512
p745
VOPERATORS OF NONRESIDENTIAL BUILDINGS
p746
sV6513
p747
VOPERATORS OF APARTMENT BUILDINGS
p748
sV4412
p749
VDEEP SEA FOREIGN TRANSPORTATION OF FREIGHT
p750
sV1520
p751
VGENERAL BLDG CONTRACTORS - RESIDENTIAL BLDGS
p752
sV8050
p753
VSERVICES-NURSING & PERSONAL CARE FACILITIES
p754
sV2070
p755
VFATS & OILS
p756
sV4961
p757
VSTEAM & AIR-CONDITIONING SUPPLY
p758
sV3812
p759
VSEARCH, DETECTION, NAVIGATION, GUIDANCE, AERONAUTICAL SYS
p760
sV2600
p761
VPAPERS & ALLIED PRODUCTS
p762
sV9721
p763
VINTERNATIONAL AFFAIRS
p764
sV3950
p765
VPENS, PENCILS & OTHER ARTISTS' MATERIALS
p766
sV3260
p767
VPOTTERY & RELATED PRODUCTS
p768
sV0900
p769
VFISHING, HUNTING AND TRAPPING
p770
sV8351
p771
VSERVICES-CHILD DAY CARE SERVICES
p772
sV5122
p773
VWHOLESALE-DRUGS, PROPRIETARIES & DRUGGISTS' SUNDRIES
p774
sV3460
p775
VMETAL FORGINGS & STAMPINGS
p776
sV7373
p777
VSERVICES-COMPUTER INTEGRATED SYSTEMS DESIGN
p778
sV5082
p779
VWHOLESALE-CONSTRUCTION & MINING (NO PETRO) MACHINERY & EQUIP
p780
sV7371
p781
VSERVICES-COMPUTER PROGRAMMING SERVICES
p782
sV5080
p783
VWHOLESALE-MACHINERY, EQUIPMENT & SUPPLIES
p784
sV7377
p785
VSERVICES-COMPUTER RENTAL & LEASING
p786
sV5084
p787
VWHOLESALE-INDUSTRIAL MACHINERY & EQUIPMENT
p788
sV2670
p789
VCONVERTED PAPER & PAPERBOARD PRODS (NO CONTAINERS/BOXES)
p790
sV2673
p791
VPLASTICS, FOIL & COATED PAPER BAGS
p792
sV5331
p793
VRETAIL-VARIETY STORES
p794
sV6163
p795
VLOAN BROKERS
p796
sV6162
p797
VMORTGAGE BANKERS & LOAN CORRESPONDENTS
p798
sV7011
p799
VHOTELS & MOTELS
p800
sV5944
p801
VRETAIL-JEWELRY STORES
p802
sV5945
p803
VRETAIL-HOBBY, TOY & GAME SHOPS
p804
sV3211
p805
VFLAT GLASS
p806
sV5940
p807
VRETAIL-MISCELLANEOUS SHOPPING GOODS STORES
p808
sV1731
p809
VELECTRICAL WORK
p810
sV8000
p811
VSERVICES-HEALTH SERVICES
p812
sV5150
p813
VWHOLESALE-FARM PRODUCT RAW MATERIALS
p814
sV3600
p815
VELECTRONIC & OTHER ELECTRICAL EQUIPMENT (NO COMPUTER EQUIP)
p816
sV2810
p817
VINDUSTRIAL INORGANIC CHEMICALS
p818
sV8090
p819
VSERVICES-MISC HEALTH & ALLIED SERVICES, NEC
p820
sV2950
p821
VASPHALT PAVING & ROOFING MATERIALS
p822
sV2211
p823
VBROADWOVEN FABRIC MILLS, COTTON
p824
sV6111
p825
VFEDERAL & FEDERALLY-SPONSORED CREDIT AGENCIES
p826
sV8071
p827
VSERVICES-MEDICAL LABORATORIES
p828
sV2430
p829
VMILLWOOD, VENEER, PLYWOOD, & STRUCTURAL WOOD MEMBERS
p830
sV7830
p831
VSERVICES-MOTION PICTURE THEATERS
p832
sV3730
p833
VSHIP & BOAT BUILDING & REPAIRING
p834
sV4923
p835
VNATURAL GAS TRANSMISSION & DISTRIBUTION
p836
sV4922
p837
VNATURAL GAS TRANSMISSION
p838
sV8888
p839
VFOREIGN GOVERNMENTS
p840
sV4924
p841
VNATURAL GAS DISTRIBUTION
p842
sV4512
p843
VAIR TRANSPORTATION, SCHEDULED
p844
sV4513
p845
VAIR COURIER SERVICES
p846
sV3100
p847
VLEATHER & LEATHER PRODUCTS
p848
sV6029
p849
VCOMMERCIAL BANKS, NEC
p850
sV2421
p851
VSAWMILLS & PLANTING MILLS, GENERAL
p852
sV6021
p853
VNATIONAL COMMERCIAL BANKS
p854
sV6022
p855
VSTATE COMMERCIAL BANKS
p856
sV6189
p857
VASSET-BACKED SECURITIES
p858
sV5160
p859
VWHOLESALE-CHEMICALS & ALLIED PRODUCTS
p860
sV2721
p861
VPERIODICALS: PUBLISHING OR PUBLISHING & PRINTING
p862
sV2731
p863
VBOOKS: PUBLISHING OR PUBLISHING & PRINTING
p864
sV5735
p865
VRETAIL-RECORD & PRERECORDED TAPE STORES
p866
sV5734
p867
VRETAIL-COMPUTER & COMPUTER SOFTWARE STORES
p868
sV5731
p869
VRETAIL-RADIO, TV & CONSUMER ELECTRONICS STORES
p870
sV5047
p871
VWHOLESALE-MEDICAL, DENTAL & HOSPITAL EQUIPMENT & SUPPLIES
p872
sV5045
p873
VWHOLESALE-COMPUTERS & PERIPHERAL EQUIPMENT & SOFTWARE
p874
sV7948
p875
VSERVICES-RACING, INCLUDING TRACK OPERATION
p876
sV5040
p877
VWHOLESALE-PROFESSIONAL & COMMERCIAL EQUIPMENT & SUPPLIES
p878
sV3420
p879
VCUTLERY, HANDTOOLS & GENERAL HARDWARE
p880
sV2000
p881
VFOOD AND KINDRED PRODUCTS
p882
sV6331
p883
VFIRE, MARINE & CASUALTY INSURANCE
p884
sV4991
p885
VCOGENERATION SERVICES & SMALL POWER PRODUCERS
p886
sV4581
p887
VAIRPORTS, FLYING FIELDS & AIRPORT TERMINAL SERVICES
p888
s.